
B_TBL_8000:
8000	55 


B_TBL_8000_TNUM:
8001	08 


B_TBL_8000_NAME:
8002	"COM\0D\0D\0D\0D\0D"


B_TBL_8000_INIT:
800A	BA 82 B8          JP	COM_TBL_INIT


B_TBL_8000_INPUT#:
800D	BA 82 C5          JP	COM_TBL_INPUT#


B_TBL_8000_PRINT#:
8010	BA 82 C9          JP	COM_TBL_PRINT#


B_TBL_8000_JMPS:
8013	9A 9A 9A 9A 9A 9A 9A 9A   9A 9A 


B_TBL_8000_TRACE:
801D	C4 AF FF          JNE	AF,811F


B_TBL_8000_A_KW:
8020	00 00 


B_TBL_8000_B_KW:
8022	80 56 


B_TBL_8000_C_KW:
8024	80 60 


B_TBL_8000_D_KW:
8026	80 89 


B_TBL_8000_E_KW:
8028	80 9A 


B_TBL_8000_F_KW:
802A	80 AA 


B_TBL_8000_G_KW:
802C	00 00 


B_TBL_8000_H_KW:
802E	00 00 


B_TBL_8000_I_KW:
8030	80 B3 


B_TBL_8000_J_KW:
8032	00 00 


B_TBL_8000_K_KW:
8034	00 00 


B_TBL_8000_L_KW:
8036	80 C8 


B_TBL_8000_M_KW:
8038	80 DD 


B_TBL_8000_N_KW:
803A	00 00 


B_TBL_8000_O_KW:
803C	80 E7 


B_TBL_8000_P_KW:
803E	80 F3 


B_TBL_8000_Q_KW:
8040	00 00 


B_TBL_8000_R_KW:
8042	81 0A 


B_TBL_8000_S_KW:
8044	81 16 


B_TBL_8000_T_KW:
8046	81 37 


B_TBL_8000_U_KW:
8048	00 00 


B_TBL_8000_V_KW:
804A	00 00 


B_TBL_8000_W_KW:
804C	00 00 


B_TBL_8000_X_KW:
804E	00 00 


B_TBL_8000_Y_KW:
8050	00 00 


B_TBL_8000_Z_KW:
8052	81 59 


B_TBL_8000_CMD_LST:
8054	B5 "BREAK"        F0B3 CD89 
805E	B5 "CLOAD"        F089 82EC 
8068	C5 "CSAVE"        F095 82DD 
8072	C4 "COM$"         E858 82D3 
807B	C7 "CONSOLE"      F0B1 82DE 
8087	D4 "DEV$"         E857 82D4 
8090	C3 "DTE"          E884 82D1 
8098	D3 "ERN"          F052 82DF 
80A0	C3 "ERL"          F053 82E0 
80A8	D4 "FEED"         F0B0 82E1 
80B1	D5 "INPUT"        F091 82E2 
80BB	C6 "INSTAT"       E859 82E3 
80C6	D6 "LPRINT"       F0B9 82E4 
80D1	C5 "LLIST"        F0B8 82E5 
80DB	D5 "MERGE"        F08F 82C0 
80E5	97 "OUTSTAT"      E880 82E6 
80F1	C5 "PRINT"        F097 82E7 
80FB	C8 "PROTOCOL"     E881 82E8 
8108	D7 "RINKEY$"      E85A 82E9 
8114	D6 "SETCOM"       E882 82D6 
811F	C6 "SETDEV"       E886 82D5 
812A	C6 "SPACE$"       F061 82EA 
8135	B8 "TERMINAL"     E883 82D2 
8142	C8 "TRANSMIT"     E885 82D7 
814F	C3 "TAB"          F0BB 880D 
8157	D4 "ZONE"         F0B4 82EB 


B_TBL_8800_END:
8160	D0 


SEPARATOR_8161:
8161	DF 00 FF 00 FF 00 CB 00   


SUB_8169:
8169	FD C8             PUSH	A
816B	B5 7F             LDA	7F
816D	FD AE D0 0D       STA#	(CE158_PRT_B_DIR)
8171	FD A5 D0 0E       LDA#	(CE158_PRT_A)
8175	FD A9 D0 0E       AND#	(CE158_PRT_A)
8179	D9                SL
817A	D9                SL
817B	D9                SL
817C	FD 8A             POP	A
817E	83 38             JR	C,BRANCH_81B8
8180	FD ED D0 0F 80    BIT#	(CE158_PRT_B),80
8185	8B A5             JR	Z,BRANCH_822C
8187	FD E9 D0 08 9F    AND#	(CE158_PRT_C),9F
818C	BD FF             XOR	FF
818E	D5                SR
818F	81 05             JR	NC,BRANCH_8196
8191	FD EB D0 08 20    OR#	(CE158_PRT_C),20

BRANCH_8196:
8196	FD AE D0 0F       STA#	(CE158_PRT_B)
819A	B5 80             LDA	80

BRANCH_819C:
819C	DF                DEC	A
819D	93 03             JR	C,BRANCH_819C
819F	FD BE             DI
81A1	FD EB D0 08 40    OR#	(CE158_PRT_C),40
81A6	B5 80             LDA	80

BRANCH_81A8:
81A8	DF                DEC	A
81A9	93 03             JR	C,BRANCH_81A8
81AB	FD E9 D0 08 BF    AND#	(CE158_PRT_C),BF
81B0	FD 81             EI
81B2	B5 80             LDA	80

BRANCH_81B4:
81B4	DF                DEC	A
81B5	93 03             JR	C,BRANCH_81B4
81B7	9A                RET

BRANCH_81B8:
81B8	B5 20             LDA	20
81BA	FB                SCF
81BB	9A                RET


SUB_81BC:
81BC	FB                SCF
81BD	FD A8             PUSH	HL
81BF	2A                STA	L
81C0	FD A5 D0 0E       LDA#	(CE158_PRT_A)
81C4	FD A9 D0 0E       AND#	(CE158_PRT_A)
81C8	B9 3C             AND	3C
81CA	89 17             JR	NZ,BRANCH_81E3
81CC	A5 78 57          LDA	(SETDEV_VAL)
81CF	B9 C0             AND	C0
81D1	D9                SL
81D2	83 02             JR	C,BRANCH_81D6
81D4	B5 04             LDA	04

BRANCH_81D6:
81D6	FD A9 D2 03       AND#	(UART_REG_R)
81DA	FB                SCF
81DB	8B 06             JR	Z,BRANCH_81E3
81DD	24                LDA	L
81DE	FD AE D2 00       STA#	(UART_DATA_W)
81E2	F9                RCF

BRANCH_81E3:
81E3	FD 2A             POP	HL
81E5	9A                RET


SUB_81E6:
81E6	FD A5 D0 0E       LDA#	(CE158_PRT_A)
81EA	FD A9 D0 0E       AND#	(CE158_PRT_A)
81EE	B9 3C             AND	3C
81F0	89 3E             JR	NZ,BRANCH_8230
81F2	FD A5 D2 03       LDA#	(UART_REG_R)
81F6	ED 78 57 40       BIT	(SETDEV_VAL),40
81FA	8B 01             JR	Z,BRANCH_81FD
81FC	D9                SL

BRANCH_81FD:
81FD	BF 02             BIT	02
81FF	8B 2B             JR	Z,BRANCH_822C
8201	ED 78 57 80       BIT	(SETDEV_VAL),80
8205	8B 01             JR	Z,BRANCH_8208
8207	D9                SL

BRANCH_8208:
8208	BF 70             BIT	70
820A	8B 1A             JR	Z,BRANCH_8226
820C	FD A5 D2 02       LDA#	(UART_DATA_R)
8210	ED 78 57 20       BIT	(SETDEV_VAL),20
8214	8B 0C             JR	Z,BRANCH_8222
8216	B5 15             LDA	15
8218	FD AE D2 01       STA#	(UART_REG_W)
821C	B5 05             LDA	05
821E	FD AE D2 01       STA#	(UART_REG_W)

BRANCH_8222:
8222	B5 40             LDA	40
8224	FB                SCF
8225	9A                RET

BRANCH_8226:
8226	FD A5 D2 02       LDA#	(UART_DATA_R)
822A	F9                RCF
822B	9A                RET

BRANCH_822C:
822C	B5 00             LDA	00
822E	FB                SCF
822F	9A                RET

BRANCH_8230:
8230	FD C8             PUSH	A
8232	FD A5 D2 02       LDA#	(UART_DATA_R)
8236	FB                SCF

BRANCH_8237:
8237	FD 8A             POP	A
8239	9A                RET


UNKNOWN_823A:
823A	E9 78 50 0F       AND	(OUTSTAT_REG),0F

BRANCH_823E:
823E	FD ED F0 0B 02    BIT#	(PC1500_IF_REG),02
8243	89 6E             JR	NZ,BRANCH_82B3
8245	FD C8             PUSH	A
8247	BE 81 BC          CALL	SUB_81BC
824A	91 15             JR	NC,BRANCH_8237
824C	D5                SR
824D	D5                SR
824E	FD 8A             POP	A
8250	95 14             JR	NH,BRANCH_823E
8252	EF 78 50 10       ADD	(OUTSTAT_REG),10
8256	91 1A             JR	NC,BRANCH_823E
8258	68 32             LD	H,32

BRANCH_825A:
825A	9A                RET


SUB_825B:
825B	E9 78 50 0F       AND	(OUTSTAT_REG),0F

BRANCH_825F:
825F	FD A8             PUSH	HL
8261	6A FF             LD	L,FF
8263	68 00             LD	H,00

BRANCH_8265:
8265	FD ED F0 0B 02    BIT#	(PC1500_IF_REG),02
826A	89 45             JR	NZ,BRANCH_82B1
826C	FD C8             PUSH	A
826E	BE 81 69          CALL	SUB_8169
8271	89 0D             JR	NZ,BRANCH_8280
8273	FD 8A             POP	A
8275	88 12             DJC	BRANCH_8265
8277	FD 60             INC	H
8279	91 16             JR	NC,BRANCH_8265
827B	FD 2A             POP	HL
827D	68 45             LD	H,45
827F	9A                RET

BRANCH_8280:
8280	FD 8A             POP	A
8282	FD 2A             POP	HL
8284	91 2C             JR	NC,BRANCH_825A
8286	EF 78 50 10       ADD	(OUTSTAT_REG),10
828A	91 2D             JR	NC,BRANCH_825F
828C	9E 36             JR	8258

BRANCH_828E:
828E	E9 78 50 0F       AND	(OUTSTAT_REG),0F

BRANCH_8292:
8292	FD ED F0 0B 02    BIT#	(PC1500_IF_REG),02
8297	89 1A             JR	NZ,BRANCH_82B3
8299	BE 81 E6          CALL	SUB_81E6
829C	81 12             JR	NC,BRANCH_82B0
829E	B9 60             AND	60
82A0	9B 10             JR	Z,BRANCH_8292
82A2	D9                SL
82A3	8F 08             JR	V,BRANCH_82AD
82A5	EF 78 50 10       ADD	(OUTSTAT_REG),10
82A9	91 19             JR	NC,BRANCH_8292
82AB	9E 55             JR	8258

BRANCH_82AD:
82AD	68 3A             LD	H,3A
82AF	FB                SCF

BRANCH_82B0:
82B0	9A                RET

BRANCH_82B1:
82B1	FD 2A             POP	HL

BRANCH_82B3:
82B3	68 00             LD	H,00
82B5	FB                SCF
82B6	9A                RET
82B7	8E 4A             JR	BACK_FROM_HI_BANK


COM_TBL_INIT:
82B8	4A D0             LD	C,D0
82BA	E9 79 DE EF       AND	(UNDEF_79DE),EF
82BE	8E 2C             JR	MAIN_ENTRY/CLOAD


MERGE:
82C0	60                INC	L
82C1	4A F0             LD	C,F0
82C3	8E 27             JR	MAIN_ENTRY/CLOAD


COM_TBL_INPUT#:
82C5	4A ED             LD	C,ED
82C7	8E 23             JR	MAIN_ENTRY/CLOAD


COM_TBL_PRINT#:
82C9	4A EE             LD	C,EE
82CB	8E 1F             JR	MAIN_ENTRY/CLOAD


LPTR_TBL_PRINT#:
82CD	4A EF             LD	C,EF
82CF	8E 1B             JR	MAIN_ENTRY/CLOAD


DTE:
82D1	F9                RCF


TERMINAL:
82D2	F9                RCF


COM$:
82D3	F9                RCF


DEV$:
82D4	F9                RCF


SETDEV:
82D5	F9                RCF

SETCOM:
82D6	F9                RCF


TRANSMIT:
82D7	F9                RCF


82D8	[F0B1],N   "CONSOLE"

CONSOLE_2:
82D8	F9                RCF


82D9	[F0B0],N   "FEED"

FEED_2:
82D9	F9                RCF


82DA	[F0B9],N   "LPRINT"

LPRINT_2:
82DA	F9                RCF


82DB	[F0B8],N   "LLIST"

LLIST_2:
82DB	F9                RCF
82DC	F9                RCF


CSAVE:
82DD	F9                RCF


CONSOLE:
82DE	F9                RCF


ERN:
82DF	F9                RCF


ERL:
82E0	F9                RCF


FEED:
82E1	F9                RCF


INPUT:
82E2	F9                RCF


INSTAT:
82E3	F9                RCF


LPRINT:
82E4	F9                RCF


LLIST:
82E5	F9                RCF


OUTSTAT:
82E6	F9                RCF

PRINT:
82E7	F9                RCF

PROTOCOL:
82E8	F9                RCF

RINKEY$:
82E9	F9                RCF


SPACE$:
82EA	F9                RCF


ZONE:
82EB	F9                RCF


MAIN_ENTRY/CLOAD:
82EC	FD BE             DI
82EE	E9 78 50 F7       AND	(OUTSTAT_REG),F7
82F2	68 7A             LD	H,7A
82F4	6A 28             LD	L,28
82F6	B5 E1             LDA	E1
82F8	61                STI	(HL)
82F9	B5 BA             LDA	BA
82FB	61                STI	(HL)
82FC	B5 82             LDA	82
82FE	61                STI	(HL)
82FF	B5 F0             LDA	F0
8301	2E                STA	(HL)
8302	BA 7A 28          JP	MATH_REG_Wa_B1
8305	FD 81             EI
8307	FD 5E             LD	PC,BC
8309	F4 78 B4          LDU	(ERR_LINE_H)
830C	4A 6C             LD	C,6C
830E	48 DA             LD	B,DA
8310	8E 51             JR	BRANCH_8363
8312	A5 78 9B          LDA	(ERROR_NUM)
8315	8E 19             JR	BRANCH_8330
8317	C2 F1 9C 05       LJNE	ON,BRANCH_8320
831B	E9 78 56 7F       AND	(ZONE_REG),7F
831F	E2                RST

BRANCH_8320:
8320	C4 F1 9E 05       JNE	OFF,BRANCH_8329
8324	E9 78 56 7F       AND	(ZONE_REG),7F
8328	E2                RST

BRANCH_8329:
8329	E4                ERR1
832A	FD A5 D0 0E       LDA#	(CE158_PRT_A)
832E	B9 1F             AND	1F

BRANCH_8330:
8330	4A E4             LD	C,E4
8332	8E 2C             JR	BRANCH_8360
8334	DE 20             EVAL	BRANCH_8356
8336	D0 04 1D          INTG	04,BRANCH_8356
8339	E9 7A 06 03       AND	(MATH_REG_Xa_B7),03
833D	A5 78 50          LDA	(OUTSTAT_REG)
8340	B9 FC             AND	FC
8342	AB 7A 06          OR	(MATH_REG_Xa_B7)
8345	AE 78 50          STA	(OUTSTAT_REG)
8348	FD A5 D0 0E       LDA#	(CE158_PRT_A)
834C	B9 FC             AND	FC
834E	AB 7A 06          OR	(MATH_REG_Xa_B7)
8351	FD AE D0 0E       STA#	(CE158_PRT_A)
8355	E2                RST

BRANCH_8356:
8356	E0                ERRH
8357	BE 81 E6          CALL	SUB_81E6
835A	81 02             JR	NC,BRANCH_835E
835C	B5 00             LDA	00

BRANCH_835E:
835E	4A AD             LD	C,AD

BRANCH_8360:
8360	48 D9             LD	B,D9
8362	2A                STA	L

BRANCH_8363:
8363	8E 97             JR	BRANCH_83FC
8365	C8 5F             LJNES	BRANCH_83C6
8367	6A 00             LD	L,00
8369	56                DEC	DE

BRANCH_836A:
836A	A5 79 D1          LDA	(BASIC_EXT_TBL)
836D	B7 C4             CPA	C4
836F	8B 06             JR	Z,BRANCH_8377
8371	24                LDA	L
8372	AE 78 51          STA	(CONS_1_RS232C)
8375	8E 04             JR	BRANCH_837B

BRANCH_8377:
8377	24                LDA	L
8378	AE 78 52          STA	(CONS_1_(//))

BRANCH_837B:
837B	C8 02             LJNES	BRANCH_837F
837D	56                DEC	DE
837E	E2                RST

BRANCH_837F:
837F	C4 2C 55          JNE	2C,BRANCH_83D7
8382	DE 52             EVAL	BRANCH_83D6
8384	D0 08 4F          INTG	08,BRANCH_83D6
8387	68 13             LD	H,13
8389	B7 02             CPA	02
838B	C3 E0             SBR	C,(E0)
838D	FD A8             PUSH	HL
838F	C8 06             LJNES	BRANCH_8397
8391	A4                LDA	H
8392	56                DEC	DE
8393	FD 2A             POP	HL
8395	8E 0F             JR	BRANCH_83A6

BRANCH_8397:
8397	C4 2C 3D          JNE	2C,BRANCH_83D7
839A	DE 3A             EVAL	BRANCH_83D6
839C	D0 08 37          INTG	08,BRANCH_83D6
839F	FD 2A             POP	HL
83A1	B7 02             CPA	02
83A3	C3 E0             SBR	C,(E0)
83A5	DD                INC	A

BRANCH_83A6:
83A6	D9                SL
83A7	22                ADC	L
83A8	2A                STA	L
83A9	A5 79 D1          LDA	(BASIC_EXT_TBL)
83AC	B7 C4             CPA	C4
83AE	8B 01             JR	Z,BRANCH_83B1
83B0	F9                RCF

BRANCH_83B1:
83B1	24                LDA	L
83B2	83 06             JR	C,BRANCH_83BA
83B4	E9 78 55 F8       AND	(CR/LF_REG),F8
83B8	8E 05             JR	BRANCH_83BF

BRANCH_83BA:
83BA	E9 78 55 8F       AND	(CR/LF_REG),8F
83BE	F1                AEX

BRANCH_83BF:
83BF	AB 78 55          OR	(CR/LF_REG)
83C2	AE 78 55          STA	(CR/LF_REG)
83C5	E2                RST

BRANCH_83C6:
83C6	C6                BKW
83C7	DE 0D             EVAL	BRANCH_83D6
83C9	D0 08 0A          INTG	08,BRANCH_83D6
83CC	24                LDA	L
83CD	9B 65             JR	Z,BRANCH_836A
83CF	62                DEC	L
83D0	6E 0F             CP	L,0F
83D2	68 13             LD	H,13
83D4	93 6C             JR	C,BRANCH_836A

BRANCH_83D6:
83D6	E0                ERRH

BRANCH_83D7:
83D7	E4                ERR1
83D8	D0 08 1D          INTG	08,BRANCH_83F8
83DB	6E 21             CP	L,21
83DD	68 19             LD	H,19
83DF	83 17             JR	C,BRANCH_83F8
83E1	4A 08             LD	C,08
83E3	48 7A             LD	B,7A
83E5	24                LDA	L
83E6	8B 0A             JR	Z,BRANCH_83F2
83E8	28                STA	H
83E9	62                DEC	L
83EA	B5 20             LDA	20

BRANCH_83EC:
83EC	41                STI	(BC)
83ED	88 03             DJC	BRANCH_83EC
83EF	4A 08             LD	C,08
83F1	A4                LDA	H

BRANCH_83F2:
83F2	BE DF A1          CALL	DFA1
83F5	02                ADC	C
83F6	68 00             LD	H,00

BRANCH_83F8:
83F8	48 80             LD	B,80
83FA	4A 13             LD	C,13

BRANCH_83FC:
83FC	B5 38             LDA	38
83FE	ED 78 50 08       BIT	(OUTSTAT_REG),08
8402	8B 06             JR	Z,BRANCH_840A
8404	B5 E1             LDA	E1
8406	EB 78 55 08       OR	(CR/LF_REG),08

BRANCH_840A:
840A	AE 7A 30          STA	(SREG)
840D	B5 24             LDA	24
840F	AE 7A 31          STA	(7A31)
8412	B5 FD             LDA	FD
8414	AE 7A 32          STA	(7A32)
8417	B5 5E             LDA	5E
8419	AE 7A 33          STA	(7A33)
841C	BA 7A 30          JP	SREG
841F	F8                EXTIT


TABLE_8420:
8420	40 7F 00 FF 00 FF 40 77   00 7F 00 FF 00 FF 0B F7 
8430	4A 7D 00 FF 00 FF 43 DF   02 27 00 FF 00 FF 06 F7 
8440	26 FD 00 FF 00 FF 08 BF   45 EA 00 FF 00 FF 11 FF 
8450	12 FF 00 FF 00 FF 01 DE   10 5A 00 FF 00 FF 11 F2 
8460	80 FD 00 FF 00 FF 22 7D   92 EB 00 FF 00 FF 00 4F 
8470	94 3D 00 FF 00 FF 03 D6   42 AE 00 FF 00 FF 46 FE 
8480	38 EF 00 FF 00 FF 86 DF   A0 BF 00 FF 00 FF 00 FF 
8490	42 FF 00 FF 00 FF 00 8B   03 F5 00 FF 00 FF 10 FF 
84A0	17 B2 00 FF 00 FF 08 FF   48 9D 00 FF 00 FF 03 FD 
84B0	12 F7 00 FF 00 FF D0 DF   00 AF 00 FF 00 FF 08 DD 
84C0	80 7D 00 FF 00 FF 04 7F   0A BB 00 FF 00 FF 00 EF 
84D0	40 FE 00 FF 00 FF 14 7B   00 E6 00 FF 00 FF 04 4F 
84E0	22 39 00 FF 00 FF 00 7D   55 6D 00 FF 00 FF 34 9D 
84F0	10 DF 00 FF 00 FF 65 AD   60 DF 00 FF 00 FF 02 DF 
8500	28 FF 00 FF 00 FF 42 D6   01 EE 00 FF 00 FF 94 F4 
8510	82 FC 00 FF 00 FF 27 7C   08 BF 00 FF 00 FF 46 DF 
8520	0D 33 00 FF 00 FF 02 CF   19 FC 00 FF 00 FF 10 FD 
8530	00 E9 00 FF 00 FF 58 DB   1A FF 00 FF 00 FF 44 FB 
8540	31 EF 00 FF 00 FF 80 E7   00 7C 00 FF 00 FF 80 EF 
8550	C8 DF 00 FF 00 FF 00 7F   58 FB 00 FF 00 FF 01 77 
8560	22 78 00 FF 00 FF 28 FF   84 F3 00 FF 00 FF 90 F2 
8570	64 FF 00 FF 00 FF 91 FF   16 FF 00 FF 00 FF F0 BF 
8580	58 B5 00 FF 00 FF 14 7A   21 7F 00 FF 00 FF 00 DF 
8590	12 FF 00 FF 00 FF 30 FB   11 AF 00 FF 00 FF 32 FE 
85A0	C4 FE 00 FF 00 FF 39 DF   CA FF 00 FF 00 FF C4 DD 
85B0	91 BF 00 FF 00 FF 02 FC   62 BB 00 FF 00 FF 21 FF 
85C0	00 CF 00 FF 00 FF 10 96   00 CF 00 FF 00 FF 00 F7 
85D0	44 F5 00 FF 00 FF 04 FC   5C ED 00 FF 00 FF 18 7F 
85E0	00 BD 00 FF 00 FF 88 FF   61 DE 00 FF 00 FF 00 DD 
85F0	B8 B6 00 FF 00 FF 02 EF   4A FF 00 FF 00 FF 0A AE 
8600	E1 B8 00 FF 00 FF 22 AB   10 3F 00 FF 00 FF 2A F6 
8610	48 FF 00 FF 00 FF 2D EF   86 E3 00 FB 00 FF 0A FB 
8620	59 73 00 FF 00 FF 31 8B   90 D5 00 FF 00 FF 49 BD 
8630	01 FA 00 FF 00 FF 90 9E   80 5F 00 FF 00 FF 04 F5 
8640	00 7F 00 FF 00 FF 30 B6   10 FB 00 FF 00 FF 38 F7 
8650	01 A7 00 FF 00 FF 81 5F   01 EA 00 FF 00 FF 03 F6 
8660	60 ED 00 FF 00 FF 04 FB   21 F7 00 FF 00 FF 84 FF 
8670	10 DF 00 FF 00 FF 20 F3   08 BF 00 FF 00 FF 32 7D 
8680	04 FF 00 FF 00 FF 29 ED   E5 5E 00 FF 00 FF 2D DF 
8690	29 EE 00 FF 00 FF 30 5F   20 BF 00 FF 00 FF 00 EB 
86A0	00 ED 00 FF 00 FF A0 FF   00 7F 00 FF 00 FF 42 FF 
86B0	3A 7E 00 FF 00 FF 22 7F   50 FD 00 FF 00 FF 04 7A 
86C0	20 FE 00 FF 00 FF 51 DF   86 FF 00 FF 00 FF 10 FF 
86D0	05 37 00 FF 00 FF 04 87   D0 BF 00 FF 00 FF 08 85 
86E0	28 5E 00 FF 00 FF 41 DF   94 57 00 FF 00 FF 00 E7 
86F0	4A EF 00 FF 00 FF 02 7F   05 FD 00 FF 00 FF 00 E7 
8700	10 00 00 D3 00 7F 02 00   10 00 00 F9 00 EF 12 00 
8710	D8 00 00 5B 00 7F A4 00   80 00 00 7F 00 B5 09 00 
8720	08 00 00 EC 00 87 8C 00   05 00 00 FD 00 F5 01 00 
8730	D8 00 00 5D 00 7B 16 00   00 12 00 26 00 4F 80 00 
8740	00 00 00 F7 00 FF D1 00   85 00 00 BF 00 3F 22 40 
8750	02 00 00 FD 00 C9 84 00   C0 00 00 BF 00 74 00 00 
8760	80 00 00 E6 00 FF 30 00   A0 20 00 B5 00 E2 38 00 
8770	C0 00 00 FB 00 EE 20 00   B0 00 00 FC 00 FC 10 24 
8780	A0 00 00 3F 00 FD 00 00   01 02 00 FD 00 79 E0 00 
8790	C8 00 00 93 00 23 E0 00   1D 00 00 F7 00 6B 00 00 
87A0	80 00 00 FD 00 FF 98 00   18 00 00 EB 00 4E 42 00 
87B0	08 00 00 FE 00 EF 05 00   11 00 00 6B 00 FB 08 00 
87C0	41 00 00 FB 00 FC 00 04   10 04 00 FE 00 FF 22 00 
87D0	80 20 00 EF 00 E7 02 80   10 00 00 FC 00 FB C0 40 
87E0	20 00 00 AF 00 2F 4A 00   C0 00 00 FF 00 B1 00 00 
87F0	20 40 00 BF 00 BF 61 00   04 00 00 77 00 FF 0C 00 


B_TBL_8800:
8800	55 


B_TBL_8800_TNUM:
8801	09 


B_TBL_8800_NAME:
8802	"LPRT\0D\0D\0D\0D"


B_TBL_8800_INIT:
880A	68 01             LD	H,01
880C	9A                RET


880D	[F0BB],N   "TAB"

B_TBL_8800_INPUT#:
880D	68 1B             LD	H,1B
880F	E0                ERRH


B_TBL_8800_PRINT#:
8810	BA 82 CD          JP	LPTR_TBL_PRINT#


B_TBL_8800_JMPS:
8813	9A 9A 9A 9A 9A 9A 9A 9A   9A BA 


B_TBL_8800_TRACE:
881D	C4 AF FF          JNE	AF,891F


B_TBL_8800_A_KW:
8820	00 00 


B_TBL_8800_B_KW:
8822	00 00 


B_TBL_8800_C_KW:
8824	88 56 


B_TBL_8800_D_KW:
8826	00 00 


B_TBL_8800_E_KW:
8828	00 00 


B_TBL_8800_F_KW:
882A	88 62 


B_TBL_8800_G_KW:
882C	00 00 


B_TBL_8800_H_KW:
882E	00 00 


B_TBL_8800_I_KW:
8830	00 00 


B_TBL_8800_J_KW:
8832	00 00 


B_TBL_8800_K_KW:
8834	00 00 


B_TBL_8800_L_KW:
8836	88 6B 


B_TBL_8800_M_KW:
8838	00 00 


B_TBL_8800_N_KW:
883A	00 00 


B_TBL_8800_O_KW:
883C	00 00 


B_TBL_8800_P_KW:
883E	00 00 


B_TBL_8800_Q_KW:
8840	00 00 


B_TBL_8800_R_KW:
8842	00 00 


B_TBL_8800_S_KW:
8844	00 00 


B_TBL_8800_T_KW:
8846	88 80 


B_TBL_8800_U_KW:
8848	00 00 


B_TBL_8800_V_KW:
884A	00 00 


B_TBL_8800_W_KW:
884C	00 00 


B_TBL_8800_X_KW:
884E	00 00 


B_TBL_8800_Y_KW:
8850	00 00 


B_TBL_8800_Z_KW:
8852	00 00 


B_TBL_8800_CMD_LST:
8854	D7 "CONSOLE"      F0B1 82D8 
8860	D4 "FEED"         F0B0 82D9 
8869	D6 "LPRINT"       F0B9 82DA 
8874	C5 "LLIST"        F0B8 82DB 
887E	D3 "TAB"          F0BB 880D 


B_TBL_8800_CMD_LST_END:
8886	D0 


TABLE_8887:
8887	D0 00 FF 00 FF 00 FF 04   FD 90 FD 00 FF 00 FF 00 
8897	FD 82 FF 00 FF 00 FF A0   EF 10 6F 00 FF 00 FF 00 
88A7	DF 04 FF 00 FF 00 FF 82   FE 82 F7 00 FF 00 FF 04 
88B7	FF 20 FF 00 FF 00 FF 00   BF 23 C7 00 FF 00 FF 00 
88C7	FB 12 EE 00 FF 00 FF 28   FB 00 AA 00 FF 00 FF 00 
88D7	77 A8 9F 00 FF 00 FF 40   D9 14 FF 00 FF 00 FF 60 
88E7	FF 00 EF 00 FF 00 FF 08   BF E0 FF 00 FF 00 FF 20 
88F7	FF 04 FF 00 FF 00 FF 0C   EF 41 EF 00 FF 00 FF 42 
8907	F7 4D FF 00 FF 00 FF 24   B7 04 FE 00 FF 00 FF 00 
8917	FF A3 7E 00 FF 00 FF 80   EE 04 D6 00 FF 00 FF 98 
8927	DF 81 FB 00 FF 00 FF 04   43 10 7C 00 FF 00 FF 0A 
8937	FF 16 E6 00 FF 00 FF 06   FB 80 BF 00 FF 00 FF 2A 
8947	27 44 BF 00 FF 00 FF 02   DA 32 7F 00 FF 00 FF 01 
8957	7A 5C FF 00 FF 00 FF 2C   3E 80 83 00 FF 00 FF 80 
8967	FC 21 EB 00 FF 00 FF 05   DF 40 4B 00 FF 00 FF 00 
8977	DF 11 7F 00 FF 00 FF 47   EF 14 BF 00 FF 00 FF 01 
8987	5B A4 1B 00 FF 00 FF 02   FE C0 EE 00 FF 00 FF 01 
8997	6F 18 BB 00 FF 00 FF A8   7E 00 67 00 FF 00 FF 00 
89A7	EF 00 FE 00 FF 00 FF 00   BB 08 FF 00 FF 00 FF 25 
89B7	EF 08 DE 00 FF 00 FF 41   FF 80 D7 00 FF 00 FF 0E 
89C7	DB 08 FE 00 FF 00 FF 00   F3 28 7F 00 FF 00 FF 51 
89D7	FF 00 BB 00 FF 00 FF 90   F7 C1 B7 00 FF 00 FF A1 
89E7	CF 12 E6 00 FF 00 FF 40   77 00 FF 00 FF 00 FF 29 
89F7	BB 10 EB 00 FF 00 FF 46   F7 08 1B 00 FF 00 FF 09 
8A07	7E 9C 7A 00 FF 00 FF 83   BE 92 FF 00 FF 00 FF 0A 
8A17	DF 05 F7 00 FF 00 FF A1   B9 46 F9 00 FF 00 FF 07 
8A27	DD 11 FF 00 FF 00 FF 4B   F7 C1 FF 00 FF 00 FF 04 
8A37	25 02 FF 00 FF 00 FF A0   FF 41 F7 00 FF 00 FF 84 
8A47	FA 4A 9C 00 FF 00 FF 48   BF 10 AF 00 FF 00 FF 06 
8A57	FF 00 EB 00 FF 00 FF 02   FE A1 DB 00 FF 00 FF 2A 
8A67	BF 82 FE 00 FF 00 FF 00   F7 80 1F 00 FF 00 FF 20 
8A77	FF 18 76 00 FF 00 FF 05   CD 00 9E 00 FF 00 FF 01 
8A87	E9 D0 FF 00 FF 00 FF 80   FF 28 9D 00 FF 00 FF 04 
8A97	EE C0 DF 00 FF 00 FF 2D   F7 5C 1D 00 FF 00 FF 01 
8AA7	DA 70 E3 00 FF 00 FF 42   EF 80 AF 00 FF 00 FF 00 
8AB7	8B 00 FF 00 FF 00 FF 00   FD A9 F7 00 FF 00 FF 02 
8AC7	BE 8D BF 00 FF 00 FF 09   FF 43 FF 00 FF 00 FF 00 
8AD7	FF 84 FF 00 FF 00 FF 40   E6 10 D7 00 FF 00 FF 70 
8AE7	BD 60 4F 00 FF 00 FF 0A   33 07 FF 00 FF 00 FF 09 
8AF7	FA 82 FD 00 FF 00 FF 00   1F 80 FF 00 FF 00 FF 12 
8B07	FD 39 B5 00 FF 00 FF 00   17 BB FC 00 FF 00 FF 09 
8B17	F7 00 CE 00 FF 00 FF EA   69 1C 66 00 FF 00 FF 00 
8B27	9E 83 CB 00 FF 00 FF A0   F7 01 1F 00 FF 00 FF 29 
8B37	FD 84 BF 00 FF 00 FF 80   F3 84 FA 00 FF 00 FF 00 
8B47	FF 84 7B 00 FF 00 FF 0C   ED E0 F7 00 FF 00 FF A2 
8B57	AF AC EB 00 FF 00 FF 81   F4 8A 4E 00 FF 00 FF 00 
8B67	FF 00 FA 00 FF 00 FF 03   CE A0 FF 00 FF 00 FF 14 
8B77	FD C2 7D 00 FF 00 FF 04   FD 00 FF 00 FF 00 FF C0 
8B87	FE 04 E4 00 FF 00 FF B8   BF 14 EF 00 FF 00 FF 40 
8B97	FF 81 FF 00 FF 00 FF 08   FE 22 BF 00 FF 00 FF 04 
8BA7	79 A1 F7 00 FF 00 FF 00   ED 55 F1 00 FF 00 FF C8 
8BB7	BF 88 CD 00 FF 00 FF 00   FF 04 7F 00 FF 00 FF 10 
8BC7	FF 04 BB 00 FF 00 FF 21   87 00 FF 00 FF 00 FF 00 
8BD7	EF 00 FB 00 FF 00 FF 80   F7 28 EB 00 FF 00 FF 20 
8BE7	3F 18 B3 00 FF 00 FF 48   67 08 FF 00 FF 00 FF 0E 
8BF7	D9 8B 7D 00 FF 00 FF 08   F7 44 FE 00 FF 00 FF 18 
8C07	8C 8C F5 00 FF 00 FF 90   DD 80 F1 00 FF 00 FF 41 
8C17	FF 20 F7 00 FF 00 FF 00   EB C2 CF 00 FF 00 FF 00 
8C27	B7 03 CF 00 FF 00 FF 48   FD 80 FF 00 FF 00 FF 20 
8C37	FD 68 E7 00 FF 00 FF 03   77 46 D7 00 FF 00 FF 07 
8C47	ED 30 F8 00 FF 00 FF 18   EE 04 3F 00 FF 00 FF 24 
8C57	E6 01 F5 00 FF 00 FF 20   7D 01 FD 00 FF 00 FF 00 
8C67	E3 00 F7 00 FF 00 FF 10   FF 41 5F 00 FF 00 FF 09 
8C77	9B 1E 66 00 FF 00 FF 02   C7 02 13 00 FF 00 FF 02 
8C87	FE 80 67 00 FF 00 FF 11   1B C0 FC 00 FF 00 FF 08 
8C97	BE 20 E6 00 FF 00 FF 00   FF 21 F7 00 FF 00 FF 28 
8CA7	FF 14 BB 00 FF 00 FF 40   FF 13 ED 00 FF 00 FF 80 
8CB7	C6 60 FF 00 FF 00 FF 01   FE 16 FF 00 FF 00 FF 00 
8CC7	7F 40 F8 00 FF 00 FF 01   BA 00 DF 00 FF 00 FF 04 
8CD7	FE C9 6B 00 FF 00 FF A0   EF 09 9E 00 FF 00 FF C0 
8CE7	FF 0A FF 00 FF 00 FF 08   5B 02 3F 00 FF 00 FF 8C 
8CF7	FD 20 75 00 FF 00 FF 0E   F7 50 FF 00 FF 00 FF 74 
8D07	F5 10 66 00 FF 00 FF 80   B6 48 DF 00 FF 00 FF 30 
8D17	FD 48 BF 00 FF 00 FF 14   FA 02 86 00 FF 00 FF 05 
8D27	7B 00 5F 00 FF 00 FF A4   FF 20 FB 00 FF 00 FF 61 
8D37	FF 95 76 00 FF 00 FF 00   3F 06 FA 00 FF 00 FF 04 
8D47	BF 00 F7 00 FF 00 FF 40   FF 92 F7 00 FF 00 FF 04 
8D57	EF 80 FD 00 FF 00 FF 02   FD 05 FE 00 FF 00 FF 08 
8D67	FF 80 76 00 FF 00 FF 05   F7 30 2F 00 FF 00 FF 08 
8D77	FF 01 EE 00 FF 00 FF 52   FF 02 C7 00 FF 00 FF 91 
8D87	E7 00 FD 00 FF 00 FF 44   77 40 FF 00 FF 00 FF 00 
8D97	FD B8 FF 00 FF 00 FF 00   DF 5A FF 00 FF 00 FF 84 
8DA7	FA 43 EF 00 FF 00 FF 94   96 00 FE 00 FF 00 FF 50 
8DB7	FB 04 FF 00 FF 00 FF 26   BF C9 FC 00 FF 00 FF 00 
8DC7	FF 80 BF 00 FF 00 FF 80   FF A0 BB 00 FF 00 FF 0C 
8DD7	B9 04 FB 00 FF 00 FF 05   B9 44 EF 00 FF 00 FF 00 
8DE7	FF 00 7D 00 FF 00 FF 00   BE 41 BB 00 FF 00 FF 10 
8DF7	FF 00 7D 00 FF 00 FF 14   EF AA 7F 00 FF 00 FF C0 
8E07	66 0C F2 00 FF 00 FF 40   FF 28 3D 00 FF 00 FF 40 
8E17	FD 48 FF 00 FF 00 FF 47   F7 08 FF 00 FF 00 FF 00 
8E27	FF 2A FE 00 FF 00 FF 41   A7 15 7E 00 FF 00 FF 62 
8E37	BF C0 FD 00 FF 00 FF 00   FD 26 5F 00 FF 00 FF 00 
8E47	FE 80 FC 00 FF 00 FF 28   BF 08 FF 00 FF 00 FF 46 
8E57	1E 20 CB 00 FF 00 FF 22   EF 20 B5 00 FF 00 FF 03 
8E67	E3 08 1E 00 FF 00 FF 0A   FB 07 FE 00 FF 00 FF 25 
8E77	F7 07 DF 00 FF 00 FF 04   6F 02 FE 00 FF 00 FF 18 
8E87	FF CC BF 00 FF 00 FF 23   7D 18 FF 00 FF 00 FF 18 
8E97	9E 02 3F 00 FF 00 FF C0   FD 50 7A 00 FF 00 FF 00 
8EA7	BD 18 FF 00 FF 00 FF 08   FD 04 FE 00 FF 00 FF 20 
8EB7	DF 44 FE 00 FF 00 FF 02   FF 02 FD 00 FF 00 FF 00 
8EC7	FF 00 DD 00 FF 00 FF 9C   BF 4C 5F 00 FF 00 FF 00 
8ED7	EF 18 FB 00 FF 00 FF A0   53 A0 DF 00 FF 00 FF 34 
8EE7	77 80 F3 00 FF 00 FF 04   EF 13 FD 00 FF 00 FF 05 
8EF7	BF 82 FE 00 FF 00 FF 00   7E 87 00 00 FF 00 DD 4B 
8F07	00 00 00 00 BF 00 7F 81   00 11 80 00 FF 00 EF 00 
8F17	40 21 04 00 FF 00 FF 0E   00 21 00 00 FF 00 FF 09 
8F27	00 80 00 00 F7 00 DF 18   00 41 00 00 FF 00 F7 25 
8F37	00 31 00 00 BB 00 DF 82   00 A8 00 00 FF 00 FF 01 
8F47	00 10 00 00 BF 00 FF 40   00 24 10 00 FF 00 6F 84 
8F57	00 80 00 00 7F 00 EF C4   00 18 00 00 FF 00 FB 28 
8F67	00 40 00 00 FF 00 B7 24   00 10 00 00 D7 00 FF B0 
8F77	00 26 00 00 EF 00 3F 00   00 10 00 00 FF 00 FF 10 
8F87	00 18 00 00 FF 00 A3 04   00 06 08 00 FF 00 FF 80 
8F97	00 80 00 00 E5 00 7B 20   00 82 00 00 7F 00 7F 00 
8FA7	00 04 00 00 FF 00 FF 80   00 C0 00 00 A7 00 FF 30 
8FB7	00 2A 02 00 FF 00 7F 90   00 00 02 00 B7 00 FF 42 
8FC7	04 26 00 00 F7 00 FF 24   00 28 04 00 7F 00 FF 10 
8FD7	00 03 00 00 FF 00 FD 00   00 18 00 00 FE 00 9B 03 
8FE7	00 00 00 00 67 00 EF 44   00 0B 00 00 FF 00 DF C0 
8FF7	00 00 00 00 3F 00 


SUB_8FFD:
8FFD	F9                RCF
8FFE	C5 C2 23 23       SBR	NH,(C2),23,BRANCH_9025
9002	B5 84             LDA	84
9004	AE 78 79          STA	(7879)
9007	C2 2D 1A          LJNE	2D,BRANCH_9024

BRANCH_900A:
900A	BA E4 F6          JP	E4F6
900D	C2 23 12          LJNE	23,BRANCH_9022
9010	B5 04             LDA	04
9012	AE 78 79          STA	(7879)
9015	C2 2D 0B          LJNE	2D,BRANCH_9023
9018	9E 10             JR	BRANCH_900A
901A	F9                RCF
901B	F9                RCF
901C	F9                RCF

BRANCH_901D:
901D	C0                LDW
901E	B5 04             LDA	04
9020	FD CA             ADD	BC

BRANCH_9022:
9022	F9                RCF

BRANCH_9023:
9023	F9                RCF

BRANCH_9024:
9024	F9                RCF

BRANCH_9025:
9025	C6                BKW
9026	04                LDA	C
9027	FD C8             PUSH	A
9029	6A 09             LD	L,09
902B	68 7A             LD	H,7A
902D	4A 6A             LD	C,6A
902F	47                LDD	(BC)
9030	2E                STA	(HL)

BRANCH_902F:
9031	88 04             DJC	902F
9033	FD 8A             POP	A
9035	FB                SCF
9036	B1 1C             SBC	1C
9038	D9                SL
9039	D9                SL
903A	D9                SL
903B	4A 6B             LD	C,6B
903D	FD CA             ADD	BC
903F	45                LDI	(BC)
9040	A9 78 57          AND	(SETDEV_VAL)
9043	8B 09             JR	Z,BRANCH_904E
9045	BE 93 CB          CALL	BRANCH_93CB
9048	AE 7B 9E          STA	(7B9E)
904B	44                INC	BC
904C	44                INC	BC
904D	44                INC	BC

BRANCH_904E:
904E	45                LDI	(BC)
904F	28                STA	H
9050	45                LDI	(BC)
9051	2A                STA	L
9052	05                LDA	(BC)
9053	BA 7A 00          JP	XREG
9056	4A 18             LD	C,18
9058	ED 78 56 40       BIT	(ZONE_REG),40
905C	9B 41             JR	Z,BRANCH_901D
905E	40                INC	C
905F	9E 44             JR	BRANCH_901D
9061	CD 3C             SBR	(3C)
9063	FD 28             LD	BC,HL
9065	68 1B             LD	H,1B
9067	C9 E0             SBR	NZ,(E0)
9069	FD 5E             LD	PC,BC
906B	04                LDA	C
906C	B2                ADC	M
906D	F4 58 93          LDU	(5893)


TBL_9070:
9070	DE C0 00 04 B2 EC 58 93   DE C0 00 10 B8 A6 5C 90 
9080	BB C0 00 08 B8 F9 5C 90   C3 C0 00 08 B9 95 5C 90 
9090	BF C0 00 04 B7 54 58 93   56 C0 00 02 E6 B6 60 93 
90A0	6A C0 00 10 E4 F3 5C 94   E0 C0 00 08 E4 F3 5C 94 
90B0	E0 C0 00 01 C8 FA 60 96   60 C0 00 B5 20 8E 06 B5 
90C0	10 8E 02 B5 00 AE 7B A1   55 B7 E0 83 23 2A B5 01 
90D0	6E 72 8B 14 D9 6E 4D 8B   0F D9 6E 61 89 12 68 1A 
90E0	ED 76 4F 10 C9 E0 8E 12   ED 7B A1 10 68 01 9E 0C 


BRANCH_90F0:
90F0	56                DEC	DE
90F1	B5 00             LDA	00
90F3	ED 76 4F 10       BIT	(LOWLCDFLAG),10
90F7	8B 01             JR	Z,BRANCH_90FA
90F9	DD                INC	A

BRANCH_90FA:
90FA	AB 7B A1          OR	(7BA1)
90FD	AE 7B A1          STA	(7BA1)
9100	BF 30             BIT	30
9102	89 09             JR	NZ,BRANCH_910D
9104	BF 02             BIT	02
9106	89 05             JR	NZ,BRANCH_910D
9108	68 1A             LD	H,1A
910A	D8                IFC
910B	C9 E0             SBR	NZ,(E0)

BRANCH_910D:
910D	BE 9D F1          CALL	SUB_9DF1
9110	C1 E4             SBR	NC,(E4)
9112	A5 7B A1          LDA	(7BA1)
9115	D5                SR
9116	81 11             JR	NC,BRANCH_9129
9118	CD 38             SBR	(38)
911A	83 08             JR	C,BRANCH_9124
911C	68 18             LD	H,18

911E	E9 7B A1 20       AND	(7BA1),20
9122	C9 E0             SBR	NZ,(E0)


BRANCH_9124:
9124	BE 9A 32          CALL	SUB_9A32
9127	8E 27             JR	BRANCH_9150

BRANCH_9129:
9129	85 13             JR	NH,BRANCH_913E
912B	BE DF F3          CALL	DFF3
912E	81 05             JR	NC,9135
9130	BE 9A 2D          CALL	SUB_9A2D

9133	8E 1B             JR	BRANCH_9150
9135	E9 7B A1 EF       AND	(7BA1),EF

BRANCH_9139:
9139	BE 9A 38          CALL	SUB_9A38
913C	8E 12             JR	BRANCH_9150

BRANCH_913E:
913E	D5                SR
913F	83 0C             JR	C,BRANCH_914D
9141	95 0A             JR	NH,BRANCH_9139
9143	BE DF F3          CALL	DFF3
9146	C1 42             SBR	NC,(42)
9148	BE 99 49          CALL	SUB_9949
914B	8E 03             JR	BRANCH_9150

BRANCH_914D:
914D	BE 99 EF          CALL	SUB_99EF

BRANCH_9150:
9150	C1 E0             SBR	NC,(E0)
9152	BE 98 BD          CALL	SUB_98BD
9155	81 03             JR	NC,BRANCH_915A

BRANCH_9157:
9157	BA 96 2B          JP	BRANCH_962B

BRANCH_915A:
915A	ED 7B A1 20       BIT	(7BA1),20
915E	8B 0D             JR	Z,BRANCH_916D
9160	ED 7B A1 04       BIT	(7BA1),04
9164	89 17             JR	NZ,BRANCH_917D
9166	BE 9C EC          CALL	SUB_9CEC
9169	93 14             JR	C,BRANCH_9157
916B	8E 02             JR	BRANCH_916F

BRANCH_916D:
916D	8E E1             JR	SUB_9250

BRANCH_916F:
916F	F4 7B 75          LDU	(7B75)
9172	FD 28             LD	BC,HL
9174	F4 7B 77          LDU	(7B77)
9177	BE 9A A7          CALL	BRANCH_9AA7
917A	BA 96 07          JP	JMP_9607

BRANCH_917D:
917D	FD 98             PUSH	DE
917F	F4 7B 75          LDU	(7B75)
9182	FD 28             LD	BC,HL

BRANCH_9184:
9184	BE 9B E1          CALL	SUB_9BE1

BRANCH_9187:
9187	83 B8             JR	C,BRANCH_9241
9189	45                LDI	(BC)
918A	28                STA	H
918B	45                LDI	(BC)
918C	2A                STA	L
918D	44                INC	BC
918E	FD 88             PUSH	BC
9190	5A 20             LD	E,20
9192	58 7A             LD	D,7A
9194	CD 10 40          SBR	(10),40
9197	4A 1F             LD	C,1F
9199	48 7A             LD	B,7A
919B	14                LDA	E
919C	FB                SCF
919D	B1 21             SBC	21
919F	ED 7B A1 80       BIT	(7BA1),80
91A3	89 10             JR	NZ,BRANCH_91B5
91A5	B5 25             LDA	25
91A7	10                SBC	E
91A8	2A                STA	L
91A9	B5 20             LDA	20
91AB	51                STI	(DE)

BRANCH_91AC:
91AC	62                DEC	L
91AD	81 03             JR	NC,BRANCH_91B2
91AF	43                STD	(BC)

BRANCH_91B0:
91B0	9E 06             JR	BRANCH_91AC

BRANCH_91B2:
91B2	44                INC	BC
91B3	14                LDA	E
91B4	00                SBC	C

BRANCH_91B5:
91B5	2A                STA	L
91B6	FD 1A             POP	DE
91B8	BE 9A CF          CALL	9ACF
91BB	83 84             JR	C,BRANCH_9241
91BD	C2 0D 02          LJNE	0D,BRANCH_91C2
91C0	8E 47             JR	BRANCH_9209

BRANCH_91C2:
91C2	4A 08             LD	C,08
91C4	48 7A             LD	B,7A
91C6	FD 98             PUSH	DE
91C8	FD 5A             LD	DE,BC
91CA	A4                LDA	H
91CB	89 0D             JR	NZ,BRANCH_91DA
91CD	6E 5D             CP	L,5D
91CF	8B 06             JR	Z,BRANCH_91D7
91D1	6E 5B             CP	L,5B
91D3	89 06             JR	NZ,BRANCH_91DB
91D5	6A 6B             LD	L,6B

BRANCH_91D7:
91D7	B5 F1             LDA	F1
91D9	28                STA	H

BRANCH_91DA:
91DA	41                STI	(BC)

BRANCH_91DB:
91DB	24                LDA	L
91DC	41                STI	(BC)
91DD	6C E0             CP	H,E0
91DF	81 20             JR	NC,BRANCH_9201
91E1	CD 1C 02          SBR	(1C),02
91E4	89 10             JR	NZ,91F6
91E6	5A 0A             LD	E,0A
91E8	B5 64             LDA	64
91EA	A7 7B A1          CPA	(7BA1)
91ED	89 10             JR	NZ,BRANCH_91FF
91EF	5A 08             LD	E,08
91F1	B5 7E             LDA	7E
91F3	51                STI	(DE)
91F4	8E 09             JR	BRANCH_91FF
91F6	ED 7B A1 80       BIT	(7BA1),80
91FA	89 03             JR	NZ,BRANCH_91FF
91FC	B5 20             LDA	20
91FE	51                STI	(DE)

BRANCH_91FF:
91FF	FD 18             LD	BC,DE

BRANCH_9201:
9201	FB                SCF
9202	04                LDA	C
9203	B1 09             SBC	09
9205	4A 08             LD	C,08
9207	9E 54             JR	BRANCH_91B5

BRANCH_9209:
9209	BE 9B 41          CALL	SUB_9B41
920C	83 33             JR	C,BRANCH_9241
920E	BE 9B C1          CALL	SUB_9BC1
9211	83 2E             JR	C,BRANCH_9241
9213	BE 9B 76          CALL	SUB_9B76
9216	83 29             JR	C,BRANCH_9241
9218	F4 7B 79          LDU	(7B79)
921B	FD 18             LD	BC,DE
921D	BE DF E1          CALL	DFE1
9220	81 11             JR	NC,BRANCH_9233

BRANCH_9222:
9222	05                LDA	(BC)
9223	DD                INC	A
9224	99 A2             JR	NZ,BRANCH_9184
9226	ED 7B A1 40       BIT	(7BA1),40
922A	8B 07             JR	Z,BRANCH_9233
922C	44                INC	BC
922D	88 0D             DJC	BRANCH_9222
922F	FD 62             DEC	H
9231	93 11             JR	C,BRANCH_9222

BRANCH_9233:
9233	ED 7B A1 40       BIT	(7BA1),40
9237	89 03             JR	NZ,BRANCH_923C
9239	BE 9B 41          CALL	SUB_9B41

BRANCH_923C:
923C	FD 1A             POP	DE
923E	BA 96 07          JP	JMP_9607

BRANCH_9241:
9241	BE 9B 5E          CALL	SUB_9B5E
9244	83 05             JR	C,BRANCH_924B
9246	BE 9C 32          CALL	SUB_9C32
9249	9E C4             JR	BRANCH_9187

BRANCH_924B:
924B	FD 1A             POP	DE

BRANCH_924D:
924D	BA 96 2B          JP	BRANCH_962B

SUB_9250:
9250	ED 7B A1 04       BIT	(7BA1),04
9254	89 62             JR	NZ,92B8
9256	BE 9D 65          CALL	SUB_9D65
9259	93 0E             JR	C,BRANCH_924D
925B	BE 9A A7          CALL	BRANCH_9AA7
925E	83 03             JR	C,BRANCH_9263
9260	BE 9E 3E          CALL	SUB_9E3E

BRANCH_9263:
9263	A5 7B A1          LDA	(7BA1)
9266	83 27             JR	C,BRANCH_928F
9268	D5                SR

BRANCH_926F:
9269	81 04             JR	NC,926F
926B	49 00             AND	(BC),00
926D	8E 1D             JR	BRANCH_928C
926F	D5                SR
9270	81 0D             JR	NC,BRANCH_927F
9272	F4 7B 94          LDU	(7B94)
9275	26                CPA	L
9276	89 03             JR	NZ,BRANCH_927B
9278	DD                INC	A
9279	8B 11             JR	Z,BRANCH_928C

BRANCH_927B:
927B	FD 28             LD	BC,HL
927D	FD 5E             LD	PC,BC

BRANCH_927F:
927F	4B FF             OR	(BC),FF
9281	CA 67             STS	(67)
9283	BE D0 9E          CALL	D09E
9286	F4 7B 75          LDU	(7B75)
9289	F6 78 69          STU	(MERGEBASIC)

BRANCH_928C:
928C	BA 96 0C          JP	JMP_960C

BRANCH_928F:
928F	FD A8             PUSH	HL
9291	D5                SR
9292	81 0B             JR	NC,BRANCH_929F
9294	4A 08             LD	C,08
9296	6A 4E             LD	L,4E
9298	B5 00             LDA	00

BRANCH_929A:
929A	41                STI	(BC)
929B	88 03             DJC	BRANCH_929A
929D	8E 14             JR	BRANCH_92B3

BRANCH_929F:
929F	D5                SR
92A0	83 11             JR	C,BRANCH_92B3
92A2	BE D0 9E          CALL	D09E
92A5	E9 7B A1 10       AND	(7BA1),10
92A9	89 08             JR	NZ,BRANCH_92B3
92AB	CC 65             LDS	(65)
92AD	4B FF             OR	(BC),FF
92AF	CA 67             STS	(67)
92B1	CA 69             STS	(69)

BRANCH_92B3:
92B3	FD 2A             POP	HL
92B5	BA 96 41          JP	JMP_9641
92B8	BE D0 0D          CALL	CE158_PRT_B_DIR

BRANCH_92BB:
92BB	CC 67             LDS	(67)
92BD	44                INC	BC
92BE	ED 7B A1 10       BIT	(7BA1),10
92C2	89 02             JR	NZ,BRANCH_92C6
92C4	CC 65             LDS	(65)

BRANCH_92C6:
92C6	CA 67             STS	(67)
92C8	CA 69             STS	(69)
92CA	4B FF             OR	(BC),FF
92CC	FD 98             PUSH	DE

BRANCH_92CE:
92CE	4A 10             LD	C,10
92D0	48 7B             LD	B,7B
92D2	6A 4F             LD	L,4F
92D4	BE 9A A5          CALL	SUB_9AA5
92D7	83 71             JR	C,SUB_934A
92D9	46                DEC	BC
92DA	05                LDA	(BC)
92DB	B7 0D             CPA	0D
92DD	89 3A             JR	NZ,BRANCH_9319
92DF	B5 60             LDA	60
92E1	AE 78 8B          STA	(788B)
92E4	BE 93 37          CALL	SUB_9337
92E7	BE F9 57          CALL	F957
92EA	8B 2F             JR	Z,BRANCH_931B
92EC	F9                RCF
92ED	04                LDA	C
92EE	B1 60             SBC	60
92F0	83 0A             JR	C,BRANCH_92FC
92F2	BE 93 37          CALL	SUB_9337

BRANCH_92F5:
92F5	FD EB F0 0A 01    OR#	(PC1500_MSK_REG),01
92FA	CD 42             SBR	(42)

BRANCH_92FC:
92FC	B7 4F             CPA	4F
92FE	83 19             JR	C,BRANCH_9319
9300	FD 88             PUSH	BC
9302	5A 60             LD	E,60
9304	BE D3 D5          CALL	D3D5
9307	FD 0A             POP	BC
9309	8B 0E             JR	Z,BRANCH_9319
930B	83 0E             JR	C,BRANCH_931B
930D	BE CF 3A          CALL	CF3A
9310	08                STA	B
9311	09                AND	(BC)
9312	06                CPA	C
9313	00                SBC	C
9314	BE 93 37          CALL	SUB_9337
9317	9E 4B             JR	BRANCH_92CE

BRANCH_9319:
9319	68 43             LD	H,43

BRANCH_931B:
931B	FD A8             PUSH	HL
931D	BE 93 37          CALL	SUB_9337
9320	FD 2A             POP	HL

BRANCH_9322:
9322	FD 1A             POP	DE
9324	58 00             LD	D,00

JMP_9326:
9326	FD EB F0 0A 01    OR#	(PC1500_MSK_REG),01
932B	A4                LDA	H
932C	C9 E0             SBR	NZ,(E0)
932E	D8                IFC
932F	8B 03             JR	Z,BRANCH_9334
9331	BA C6 84          JP	C684

BRANCH_9334:
9334	BA C4 C6          JP	C4C6

SUB_9337:
9337	4A 10             LD	C,10
9339	48 7B             LD	B,7B
933B	5A 60             LD	E,60
933D	58 7B             LD	D,7B
933F	6A 4F             LD	L,4F

BRANCH_9341:
9341	05                LDA	(BC)
9342	28                STA	H
9343	15                LDA	(DE)
9344	41                STI	(BC)
9345	A4                LDA	H
9346	51                STI	(DE)
9347	88 08             DJC	BRANCH_9341
9349	9A                RET

SUB_934A:
934A	6C 42             CP	H,42
934C	99 2C             JR	NZ,BRANCH_9322
934E	9E 5B             JR	BRANCH_92F5

SUB_9350:
9350	BE 93 C1          CALL	BRANCH_93C1
9353	AE 7B 9E          STA	(7B9E)
9356	BE DF F3          CALL	DFF3
9359	C1 42             SBR	NC,(42)
935B	BE 99 49          CALL	SUB_9949
935E	C1 E0             SBR	NC,(E0)
9360	B5 64             LDA	64
9362	BE 98 B7          CALL	SUB_98B7
9365	83 57             JR	C,BRANCH_93BE
9367	BA 91 7D          JP	BRANCH_917D
936A	B5 6C             LDA	6C
936C	BE 98 C0          CALL	SUB_98C0
936F	83 09             JR	C,BRANCH_937A
9371	BE 9B DF          CALL	9BDF

BRANCH_9374:
9374	83 04             JR	C,BRANCH_937A
9376	C8 0E             LJNES	BRANCH_9386
9378	8E 32             JR	BRANCH_93AC

BRANCH_937A:
937A	BE 9B 5E          CALL	SUB_9B5E
937D	83 3F             JR	C,BRANCH_93BE
937F	BE 9C 32          CALL	SUB_9C32
9382	FD 5A             LD	DE,BC
9384	9E 12             JR	BRANCH_9374

BRANCH_9386:
9386	C6                BKW

BRANCH_9387:
9387	DE 35             EVAL	BRANCH_93BE
9389	D2 08 80          ARG	BRANCH_9393,80
938C	FD 98             PUSH	DE
938E	BE EF 1B          CALL	EF1B
9391	FD 1A             POP	DE

BRANCH_9393:
9393	DC                LDPT
9394	DF                DEC	A
9395	83 0B             JR	C,BRANCH_93A2
9397	A5 7A 04          LDA	(7A04)
939A	B1 C0             SBC	C0
939C	89 0C             JR	NZ,BRANCH_93AA
939E	0A                STA	C
939F	48 7A             LD	B,7A
93A1	0E                STA	(BC)

BRANCH_93A2:
93A2	2A                STA	L
93A3	68 00             LD	H,00
93A5	BE 9A CF          CALL	9ACF
93A8	93 30             JR	C,BRANCH_937A

BRANCH_93AA:
93AA	C8 02             LJNES	BRANCH_93AE

BRANCH_93AC:
93AC	8E BA             JR	BRANCH_9468

BRANCH_93AE:
93AE	C4 3B 06          JNE	3B,BRANCH_93B7
93B1	C8 02             LJNES	BRANCH_93B5
93B3	8E C5             JR	BRANCH_947A

BRANCH_93B5:
93B5	9E 31             JR	BRANCH_9386

BRANCH_93B7:
93B7	C4 2C 02          JNE	2C,BRANCH_93BC
93BA	9E 35             JR	BRANCH_9387

BRANCH_93BC:
93BC	68 01             LD	H,01

BRANCH_93BE:
93BE	BA 96 2B          JP	BRANCH_962B

BRANCH_93C1:
93C1	B5 C4             LDA	C4

BRANCH_93C3:
93C3	68 1B             LD	H,1B
93C5	A7 79 D1          CPA	(BASIC_EXT_TBL)
93C8	C9 E0             SBR	NZ,(E0)
93CA	9A                RET

BRANCH_93CB:
93CB	B5 C0             LDA	C0
93CD	9E 0C             JR	BRANCH_93C3


SEPARATOR_93CF:
93CF	FF 


BRANCH_93D0:
93D0	B5 C0             LDA	C0
93D2	8E 07             JR	BRANCH_93DB
93D4	B5 C4             LDA	C4
93D6	8E 03             JR	BRANCH_93DB
93D8	BE 93 C1          CALL	BRANCH_93C1

BRANCH_93DB:
93DB	AE 7B 9E          STA	(7B9E)
93DE	B5 6C             LDA	6C
93E0	BE 98 B7          CALL	SUB_98B7
93E3	83 7F             JR	C,BRANCH_9464
93E5	BE 9B DF          CALL	9BDF

BRANCH_93E8:
93E8	83 7A             JR	C,BRANCH_9464

BRANCH_93EE:
93EA	C8 02             LJNES	93EE
93EC	8E 7A             JR	BRANCH_9468
93EE	C6                BKW

BRANCH_93EF:
93EF	E9 7B A0 00       AND	(7BA0),00

BRANCH_93F3:
93F3	ED 7B A0 80       BIT	(7BA0),80
93F7	89 0C             JR	NZ,9405
93F9	C2 F0 85 09       LJNE	USING,BRANCH_9406
93FD	EB 7B A0 80       OR	(7BA0),80
9401	BE DA B2          CALL	DAB2
9404	5F C0             ADD	(DE),C0

BRANCH_9406:
9406	ED 7B A0 40       BIT	(7BA0),40
940A	89 1B             JR	NZ,BRANCH_9427
940C	C4 F0 BB 17       JNE	TAB,BRANCH_9427
9410	EB 7B A0 40       OR	(7BA0),40
9414	DE 4E             EVAL	BRANCH_9464
9416	D0 08 4B          INTG	08,BRANCH_9464
9419	BE 9A 78          CALL	SUB_9A78
941C	83 46             JR	C,BRANCH_9464
941E	C8 02             LJNES	BRANCH_9422
9420	8E 58             JR	BRANCH_947A

BRANCH_9422:
9422	C4 3B 6C          JNE	3B,BRANCH_9491
9425	9E 34             JR	BRANCH_93F3

BRANCH_9427:
9427	C6                BKW
9428	DE 3A             EVAL	BRANCH_9464
942A	D2 0F 80          ARG	BRANCH_943B,80
942D	FD 98             PUSH	DE
942F	B5 01             LDA	01
9431	BE EA 78          CALL	EA78
9434	FD 1A             POP	DE
9436	83 2C             JR	C,BRANCH_9464
9438	2A                STA	L
9439	8E 21             JR	BRANCH_945C

BRANCH_943B:
943B	DC                LDPT
943C	89 0F             JR	NZ,BRANCH_944D
943E	A5 7A 04          LDA	(7A04)
9441	B7 C1             CPA	C1
9443	89 21             JR	NZ,BRANCH_9466
9445	B5 00             LDA	00
9447	48 7A             LD	B,7A
9449	0A                STA	C
944A	0E                STA	(BC)
944B	6A 01             LD	L,01

BRANCH_944D:
944D	A5 78 97          LDA	(7897)
9450	8B 0A             JR	Z,BRANCH_945C
9452	FB                SCF
9453	28                STA	H
9454	20                SBC	L
9455	81 03             JR	NC,BRANCH_945A
9457	28                STA	H
9458	8E 04             JR	BRANCH_945E

BRANCH_945A:
945A	A4                LDA	H
945B	2A                STA	L

BRANCH_945C:
945C	68 00             LD	H,00

BRANCH_945E:
945E	62                DEC	L
945F	BE 9A 9D          CALL	BRAnCH_9A9D
9462	81 02             JR	NC,BRANCH_9466

BRANCH_9464:
9464	8E 2D             JR	BRANCH_9493

BRANCH_9466:
9466	C8 0D             LJNES	9475

BRANCH_9468:
9468	BE 9B 41          CALL	SUB_9B41
946B	83 26             JR	C,BRANCH_9493
946D	BE 9B C1          CALL	SUB_9BC1
9470	83 21             JR	C,BRANCH_9493
9472	BA 96 07          JP	JMP_9607
9475	C4 3B 0A          JNE	3B,9482
9478	C8 14             LJNES	BRANCH_948E

BRANCH_947A:
947A	BE 9B C1          CALL	SUB_9BC1
947D	83 14             JR	C,BRANCH_9493
947F	BA 96 0C          JP	JMP_960C
9482	C4 2C 0C          JNE	2C,BRANCH_9491
9485	BE 9A 50          CALL	SUB_9A50
9488	83 09             JR	C,BRANCH_9493
948A	C8 02             LJNES	BRANCH_948E
948C	9E 14             JR	BRANCH_947A

BRANCH_948E:
948E	C6                BKW
948F	9E A2             JR	BRANCH_93EF

BRANCH_9491:
9491	68 01             LD	H,01

BRANCH_9493:
9493	BE 9B 5E          CALL	SUB_9B5E
9496	83 08             JR	C,BRANCH_94A0
9498	BE 9C 32          CALL	SUB_9C32
949B	FD 5A             LD	DE,BC
949D	BA 93 E8          JP	BRANCH_93E8

BRANCH_94A0:
94A0	BA 96 2B          JP	BRANCH_962B

94A3	00 0B 00 00 88 00 00 00   00 13 00 00 10 00 00 00 
94B3	00 D3 19 00 88 00 00 00   01 A3 19 00 10 00 FF 00 
94C3	FF 00 FF 00 FF 00 FF 00   FF 00 FF 00 FF 00 FF 00 
94D3	FF 00 FF 00 FF 00 FF 00   FF 00 FF 20 FF 


SUB_94E0:
94E0	B5 C0             LDA	C0
94E2	AE 7B 9E          STA	(7B9E)
94E5	B5 28             LDA	28
94E7	ED 78 79 80       BIT	(7879),80
94EB	8B 02             JR	Z,BRANCH_94EF
94ED	B5 08             LDA	08

BRANCH_94EF:
94EF	BE 98 C0          CALL	SUB_98C0
94F2	BE 9D F1          CALL	SUB_9DF1
94F5	91 57             JR	NC,BRANCH_94A0
94F7	ED 7B A1 20       BIT	(7BA1),20
94FB	89 05             JR	NZ,BRANCH_9502
94FD	BE 9D 65          CALL	SUB_9D65
9500	8E 16             JR	BRANCH_9518

BRANCH_9502:
9502	BE 9C EC          CALL	SUB_9CEC
9505	93 67             JR	C,BRANCH_94A0

JMP_9507:
9507	ED 7B A1 20       BIT	(7BA1),20
950B	8B 0D             JR	Z,BRANCH_951A
950D	ED 7B A1 80       BIT	(7BA1),80
9511	89 05             JR	NZ,BRANCH_9518
9513	B5 FF             LDA	FF
9515	BE 9B 8C          CALL	SUB_9B8C

BRANCH_9518:
9518	93 7A             JR	C,BRANCH_94A0

BRANCH_951A:
951A	CE F1 25          VAR	F1,BRANCH_9542
951D	ED 7B A1 20       BIT	(7BA1),20
9521	89 39             JR	NZ,BRANCH_955C
9523	BF 01             BIT	01
9525	8B 35             JR	Z,BRANCH_955C
9527	BF 20             BIT	20
9529	89 31             JR	NZ,BRANCH_955C
952B	FD C8             PUSH	A
952D	66                DEC	HL
952E	66                DEC	HL
952F	66                DEC	HL
9530	66                DEC	HL
9531	CC 99             LDS	(99)
9533	A6                CPA	H
9534	89 04             JR	NZ,BRANCH_953A
9536	04                LDA	C
9537	26                CPA	L
9538	8B 02             JR	Z,BRANCH_953C

BRANCH_953A:
953A	64                INC	HL
953B	64                INC	HL

BRANCH_953C:
953C	64                INC	HL
953D	64                INC	HL
953E	FD 8A             POP	A
9540	8E 1A             JR	BRANCH_955C

BRANCH_9542:
9542	6C 15             CP	H,15
9544	99 A6             JR	NZ,BRANCH_94A0
9546	24                LDA	L
9547	F1                AEX
9548	D5                SR
9549	D5                SR
954A	B5 00             LDA	00
954C	4A 1F             LD	C,1F
954E	48 7A             LD	B,7A
9550	6A 0F             LD	L,0F

BRANCH_9552:
9552	43                STD	(BC)
9553	88 03             DJC	BRANCH_9552
9555	81 02             JR	NC,BRANCH_9559
9557	B5 08             LDA	08

BRANCH_9559:
9559	44                INC	BC
955A	FD 6A             LD	HL,BC

BRANCH_955C:
955C	AE 78 79          STA	(7879)
955F	48 94             LD	B,94
9561	4A A7             LD	C,A7
9563	FD CA             ADD	BC
9565	D5                SR
9566	B5 05             LDA	05
9568	81 05             JR	NC,BRANCH_956F
956A	FD EA             ADD	HL
956C	FD 28             LD	BC,HL
956E	46                DEC	BC

BRANCH_956F:
956F	DA                STVP
9570	68 7A             LD	H,7A
9572	6A 04             LD	L,04

BRANCH_9574:
9574	47                LDD	(BC)
9575	2E                STA	(HL)
9576	88 04             DJC	BRANCH_9574
9578	FD 28             LD	BC,HL
957A	ED 7B A1 20       BIT	(7BA1),20
957E	89 02             JR	NZ,BRANCH_9582
9580	4A 07             LD	C,07

BRANCH_9582:
9582	40                INC	C
9583	6A 04             LD	L,04
9585	68 00             LD	H,00
9587	BE 9B E1          CALL	SUB_9BE1

BRANCH_958A:
958A	83 6F             JR	C,BRANCH_95FB
958C	BE 9A CF          CALL	9ACF
958F	83 6A             JR	C,BRANCH_95FB
9591	ED 7B A1 20       BIT	(7BA1),20
9595	89 0B             JR	NZ,BRANCH_95A2
9597	68 7A             LD	H,7A
9599	6A 04             LD	L,04

BRANCH_959B:
959B	46                DEC	BC
959C	25                LDA	(HL)
959D	07                CPA	(BC)
959E	89 22             JR	NZ,BRANCH_95C2
95A0	88 07             DJC	BRANCH_959B

BRANCH_95A2:
95A2	CC 83             LDS	(83)
95A4	A5 78 79          LDA	(7879)
95A7	B7 18             CPA	18
95A9	8B 1C             JR	Z,BRANCH_95C7
95AB	F4 7A 00          LDU	(XREG)
95AE	B5 FC             LDA	FC
95B0	FD EA             ADD	HL
95B2	A4                LDA	H
95B3	DF                DEC	A

BRANCH_95B4:
95B4	FD C8             PUSH	A
95B6	BE 9A CF          CALL	9ACF
95B9	FD 8A             POP	A
95BB	83 3E             JR	C,BRANCH_95FB
95BD	DF                DEC	A
95BE	93 0C             JR	C,BRANCH_95B4
95C0	8E 43             JR	BRANCH_9605

BRANCH_95C2:
95C2	68 42             LD	H,42

BRANCH_95C4:
95C4	BA 96 2B          JP	BRANCH_962B

BRANCH_95C7:
95C7	6A 3F             LD	L,3F
95C9	BE 9A CF          CALL	9ACF
95CC	83 2D             JR	C,BRANCH_95FB
95CE	ED 7B A1 20       BIT	(7BA1),20
95D2	8B 07             JR	Z,BRANCH_95DB
95D4	B5 FF             LDA	FF
95D6	BE 9B 8C          CALL	SUB_9B8C
95D9	83 20             JR	C,BRANCH_95FB

BRANCH_95DB:
95DB	4A 50             LD	C,50
95DD	48 76             LD	B,76
95DF	6A AF             LD	L,AF
95E1	BE 9A CF          CALL	9ACF
95E4	83 15             JR	C,BRANCH_95FB
95E6	ED 7B A1 20       BIT	(7BA1),20
95EA	8B 07             JR	Z,BRANCH_95F3
95EC	B5 FF             LDA	FF
95EE	BE 9B 8C          CALL	SUB_9B8C
95F1	83 08             JR	C,BRANCH_95FB

BRANCH_95F3:
95F3	4A 50             LD	C,50
95F5	6A AF             LD	L,AF
95F7	B5 00             LDA	00
95F9	9E 47             JR	BRANCH_95B4

BRANCH_95FB:
95FB	BE 9B 5E          CALL	SUB_9B5E
95FE	93 3C             JR	C,BRANCH_95C4
9600	BE 9C 32          CALL	SUB_9C32
9603	9E 7B             JR	BRANCH_958A

BRANCH_9605:
9605	C8 0F             LJNES	9616

JMP_9607:
9607	BE 9E 3E          CALL	SUB_9E3E
960A	83 1F             JR	C,BRANCH_962B

JMP_960C:
960C	BE 9B AA          CALL	SUB_9BAA
960F	FD EB F0 0A 01    OR#	(PC1500_MSK_REG),01
9614	56                DEC	DE
9615	E2                RST
9616	C4 2C 10          JNE	2C,BRANCH_9629
9619	B5 84             LDA	84
961B	ED 7B A1 20       BIT	(7BA1),20
961F	8B 02             JR	Z,BRANCH_9623
9621	B5 04             LDA	04

BRANCH_9623:
9623	AE 78 79          STA	(7879)
9626	BA 95 07          JP	JMP_9507

BRANCH_9629:
9629	68 01             LD	H,01


BRANCH_962B:
962B	A5 7B A1          LDA	(7BA1)
962E	B7 A0             CPA	A0
9630	81 0C             JR	NC,BRANCH_963E
9632	FD 28             LD	BC,HL
9634	FD E9 F0 0A FC    AND#	(PC1500_MSK_REG),FC
9639	BE 9E 47          CALL	SUB_9E47
963C	FD 6A             LD	HL,BC

BRANCH_963E:
963E	BE 9B AA          CALL	SUB_9BAA

JMP_9641:
9641	FD EB F0 0A 01    OR#	(PC1500_MSK_REG),01
9646	A4                LDA	H
9647	C9 E0             SBR	NZ,(E0)
9649	FD EB F0 0B 02    OR#	(PC1500_IF_REG),02
964E	BA C6 84          JP	C684


SEPARATOR_9651:
9651	FF 00 FF 00 FF 00 FF 00   FF 00 FF 00 FF 00 FF 


SUB_9660:
9660	B5 C0             LDA	C0
9662	AE 7B 9E          STA	(7B9E)
9665	C2 25 46          LJNE	25,BRANCH_96AE
9668	CE F1 78          VAR	F1,BRANCH_96E3
966B	FD 28             LD	BC,HL
966D	68 44             LD	H,44
966F	B7 29             CPA	29
9671	C9 E0             SBR	NZ,(E0)
9673	46                DEC	BC
9674	4D 20             BIT	(BC),20
9676	CB E0             SBR	Z,(E0)
9678	44                INC	BC
9679	45                LDI	(BC)
967A	28                STA	H
967B	45                LDI	(BC)
967C	2A                STA	L
967D	44                INC	BC
967E	44                INC	BC
967F	44                INC	BC
9680	66                DEC	HL
9681	66                DEC	HL
9682	66                DEC	HL
9683	66                DEC	HL
9684	FD 88             PUSH	BC
9686	FD A8             PUSH	HL
9688	BE D3 C5          CALL	D3C5
968B	B5 0C             LDA	0C
968D	BE 98 C0          CALL	SUB_98C0
9690	FD 2A             POP	HL
9692	FD 0A             POP	BC
9694	BE 9A A7          CALL	BRANCH_9AA7
9697	81 07             JR	NC,BRANCH_96A0
9699	6C 42             CP	H,42
969B	8B 0B             JR	Z,BRANCH_96A8
969D	BA 93 26          JP	JMP_9326

BRANCH_96A0:
96A0	46                DEC	BC
96A1	05                LDA	(BC)
96A2	B7 0D             CPA	0D
96A4	89 02             JR	NZ,BRANCH_96A8
96A6	49 00             AND	(BC),00

BRANCH_96A8:
96A8	FD EB F0 0A 01    OR#	(PC1500_MSK_REG),01
96AD	E2                RST

BRANCH_96AE:
96AE	C6                BKW
96AF	68 1A             LD	H,1A
96B1	D8                IFC
96B2	CB E0             SBR	Z,(E0)
96B4	E9 7B 9F 00       AND	(7B9F),00
96B8	C2 24 05          LJNE	24,BRANCH_96C0
96BB	C0                LDW
96BC	EB 7B 9F 01       OR	(7B9F),01

BRANCH_96C0:
96C0	C6                BKW
96C1	BE D0 34          CALL	SUB25
96C4	C2 22 1D          LJNE	22,BRANCH_96E4
96C7	CD 0C             SBR	(0C)
96C9	FD 98             PUSH	DE
96CB	5A B0             LD	E,B0
96CD	58 7B             LD	D,7B
96CF	A5 7A 07          LDA	(7A07)
96D2	2A                STA	L
96D3	BE D0 49          CALL	D049
96D6	14                LDA	E
96D7	AE 78 8B          STA	(788B)
96DA	FD 1A             POP	DE
96DC	C2 3B 0D          LJNE	3B,BRANCH_96EC
96DF	B5 40             LDA	40
96E1	8E 13             JR	BRANCH_96F6

BRANCH_96E3:
96E3	E0                ERRH

BRANCH_96E4:
96E4	C6                BKW
96E5	B5 3F             LDA	3F
96E7	AE 7B B0          STA	(INPUTBUF)
96EA	8E 03             JR	BRANCH_96EF

BRANCH_96EC:
96EC	C4 2C 78          JNE	2C,BRANCH_9767

BRANCH_96EF:
96EF	B5 B0             LDA	B0
96F1	AE 78 8B          STA	(788B)
96F4	B5 00             LDA	00

BRANCH_96F6:
96F6	AE 78 80          STA	(7880)
96F9	EB 78 8A 10       OR	(788A),10
96FD	BE EF 67          CALL	EF67
9700	68 20             LD	H,20
9702	E9 78 8A 00       AND	(788A),00
9706	C3 E0             SBR	C,(E0)
9708	B5 0C             LDA	0C
970A	BE 98 C0          CALL	SUB_98C0
970D	83 5F             JR	C,BRANCH_976E
970F	FD 98             PUSH	DE
9711	58 7B             LD	D,7B
9713	A5 78 8B          LDA	(788B)
9716	1A                STA	E
9717	BE E8 CA          CALL	PRGMDISP

BRANCH_971A:
971A	FD 1A             POP	DE
971C	CE 58 4F          VAR	58,BRANCH_976E
971F	F6 78 86          STU	(7886)
9722	44                INC	BC
9723	A5 7A 07          LDA	(7A07)
9726	0E                STA	(BC)
9727	FD 98             PUSH	DE
9729	58 7B             LD	D,7B
972B	BE D0 21          CALL	D021
972E	A5 78 8B          LDA	(788B)
9731	0A                STA	C
9732	48 7B             LD	B,7B
9734	B5 FF             LDA	FF
9736	FB                SCF
9737	00                SBC	C
9738	2A                STA	L
9739	BE 9A A5          CALL	SUB_9AA5
973C	83 2A             JR	C,BRANCH_9768
973E	46                DEC	BC
973F	68 43             LD	H,43
9741	05                LDA	(BC)
9742	B7 0D             CPA	0D
9744	89 26             JR	NZ,BRANCH_976C
9746	ED 7B 9F 01       BIT	(7B9F),01
974A	89 0B             JR	NZ,BRANCH_9757
974C	ED 78 88 80       BIT	(7888),80
9750	8B 05             JR	Z,BRANCH_9757
9752	BE F9 57          CALL	F957
9755	8B 15             JR	Z,BRANCH_976C

BRANCH_9757:
9757	A5 78 8B          LDA	(788B)
975A	06                CPA	C
975B	81 14             JR	NC,BRANCH_9771
975D	FD EB F0 0A 01    OR#	(PC1500_MSK_REG),01
9762	FD 1A             POP	DE
9764	BA C6 76          JP	C676

BRANCH_9767:
9767	E4                ERR1

BRANCH_9768:
9768	6C 42             CP	H,42
976A	9B 0F             JR	Z,975D

BRANCH_976C:
976C	FD 1A             POP	DE

BRANCH_976E:
976E	BA 93 26          JP	JMP_9326

BRANCH_9771:
9771	1A                STA	E
9772	58 7B             LD	D,7B

BRANCH_9774:
9774	C2 2C 0F          LJNE	2C,BRANCH_9786
9777	EC                CLX
9778	B5 D0             LDA	D0
977A	ED 78 88 80       BIT	(7888),80
977E	89 03             JR	NZ,BRANCH_9783
9780	AE 7A 04          STA	(7A04)

BRANCH_9783:
9783	56                DEC	DE
9784	8E 30             JR	BRANCH_97B6

BRANCH_9786:
9786	C6                BKW
9787	ED 78 88 80       BIT	(7888),80
978B	89 27             JR	NZ,BRANCH_97B4
978D	C2 22 04          LJNE	22,BRANCH_9794
9790	CD 0C             SBR	(0C)
9792	8E 22             JR	BRANCH_97B6

BRANCH_9794:
9794	C6                BKW
9795	FD 18             LD	BC,DE
9797	6A 4F             LD	L,4F

BRANCH_9799:
9799	55                LDI	(DE)
979A	B7 E0             CPA	E0
979C	83 0A             JR	C,BRANCH_97A8
979E	B7 2C             CPA	2C
97A0	8B 0A             JR	Z,BRANCH_97AC
97A2	B7 0D             CPA	0D
97A4	8B 06             JR	Z,BRANCH_97AC
97A6	88 0F             DJC	BRANCH_9799

BRANCH_97A8:
97A8	68 1C             LD	H,1C
97AA	9E 40             JR	BRANCH_976C

BRANCH_97AC:
97AC	56                DEC	DE
97AD	14                LDA	E
97AE	FB                SCF
97AF	00                SBC	C
97B0	CD 24             SBR	(24)
97B2	8E 02             JR	BRANCH_97B6

BRANCH_97B4:
97B4	DE 63             EVAL	BRANCH_9819

BRANCH_97B6:
97B6	F4 78 86          LDU	(7886)
97B9	CC 88             LDS	(88)
97BB	BE C0 11          CALL	C011
97BE	CD 08 58          SBR	(08),BRANCH_9819
97C1	FD 18             LD	BC,DE
97C3	FD 1A             POP	DE
97C5	FD 88             PUSH	BC
97C7	C8 21             LJNES	BRANCH_97EA
97C9	FD 0A             POP	BC
97CB	05                LDA	(BC)
97CC	B7 0D             CPA	0D
97CE	68 41             LD	H,41
97D0	99 64             JR	NZ,BRANCH_976E
97D2	FD EB F0 0A 01    OR#	(PC1500_MSK_REG),01
97D7	56                DEC	DE
97D8	FD 98             PUSH	DE
97DA	58 7B             LD	D,7B
97DC	A5 78 8B          LDA	(788B)
97DF	1A                STA	E
97E0	E9 78 80 00       AND	(7880),00
97E4	BE E8 CA          CALL	PRGMDISP
97E7	FD 1A             POP	DE
97E9	E2                RST

BRANCH_97EA:
97EA	C4 2C 26          JNE	2C,9813
97ED	FD 0A             POP	BC
97EF	FD 98             PUSH	DE
97F1	45                LDI	(BC)
97F2	B7 2C             CPA	2C
97F4	8B 06             JR	Z,BRANCH_97FC
97F6	B7 0D             CPA	0D
97F8	99 52             JR	NZ,BRANCH_97A8
97FA	9E E2             JR	BRANCH_971A

BRANCH_97FC:
97FC	FD 1A             POP	DE
97FE	FD 88             PUSH	BC
9800	CE 58 12          VAR	58,BRANCH_9815
9803	F6 78 86          STU	(7886)
9806	44                INC	BC
9807	A5 7A 07          LDA	(7A07)
980A	0E                STA	(BC)
980B	FD 0A             POP	BC
980D	FD 98             PUSH	DE
980F	FD 5A             LD	DE,BC
9811	9E 9F             JR	BRANCH_9774
9813	68 01             LD	H,01

BRANCH_9815:
9815	FD 0A             POP	BC
9817	9E AB             JR	BRANCH_976E

BRANCH_9819:
9819	9E AF             JR	BRANCH_976C


SEPARATOR_981B:
981B	FF 00 FF 01 


SUB_981F:
981F	BF A5             BIT	A5
9821	79 D1             AND	(MN),D1
9823	AE 7B 9E          STA	(7B9E)
9826	B5 6C             LDA	6C
9828	BE 98 B7          CALL	SUB_98B7
982B	C8 04             LJNES	BRANCH_9831
982D	6A 00             LD	L,00
982F	8E 0C             JR	BRANCH_983D

BRANCH_9831:
9831	C6                BKW
9832	DE 2A             EVAL	BRANCH_985E
9834	D0 01 27          INTG	01,BRANCH_985E
9837	C8 23             LJNES	BRANCH_985C
9839	F4 7A 05          LDU	(7A05)
983C	66                DEC	HL

BRANCH_983D:
983D	A5 7B A6          LDA	(7BA6)
9840	8B 05             JR	Z,BRANCH_9847
9842	DD                INC	A
9843	B7 A7             CPA	A7
9845	8B 07             JR	Z,BRANCH_984E

BRANCH_9847:
9847	B5 20             LDA	20
9849	BE 7B AA          CALL	7BAA
984C	83 10             JR	C,BRANCH_985E

BRANCH_984E:
984E	BE 9B 41          CALL	SUB_9B41
9851	83 0B             JR	C,BRANCH_985E
9853	88 0E             DJC	BRANCH_9847
9855	FD 62             DEC	H
9857	93 12             JR	C,BRANCH_9847
9859	BA 96 0C          JP	JMP_960C

BRANCH_985C:
985C	68 01             LD	H,01

BRANCH_985E:
985E	BA 96 2B          JP	BRANCH_962B
9861	FA                TIMIT


SEPARATOR_9862:
9862	00 FF 00 FF 45 F7 00 FF   00 FF 00 FF 02 FF 

9870	DE 14             EVAL	9886
9872	D0 09 11          INTG	09,9886
9875	68 35             LD	H,35
9877	BF E0             BIT	E0
9879	C9 E0             SBR	NZ,(E0)
987B	E9 78 56 E0       AND	(ZONE_REG),E0
987F	AB 78 56          OR	(ZONE_REG)
9882	AE 78 56          STA	(ZONE_REG)
9885	E2                RST

9886	E0 


TBL_9887:
9887	BA 82 8E          JP	BRANCH_828E
988A	BA 9B 1C          JP	SUB_9B1C
988D	BA 82 3A          JP	UNKNOWN_823A
9890	BA 9B 31          JP	SUB_9B31
9893	BA 82 5B          JP	SUB_825B
9896	BA 9B 31          JP	SUB_9B31
9899	BA 82 5B          JP	SUB_825B
989C	BA 9B 31          JP	SUB_9B31
989F	BA 9C 99          JP	JMP_9C99
98A2	BA 9B 1C          JP	SUB_9B1C
98A5	BA 9C 60          JP	JMP_9C60
98A8	BA 9B 31          JP	SUB_9B31
98AB	BA 82 5B          JP	SUB_825B
98AE	BA 9B 31          JP	SUB_9B31
98B1	BA 82 5B          JP	SUB_825B
98B4	BA 9B 31          JP	SUB_9B31


SUB_98B7:
98B7	FD C8             PUSH	A
98B9	FD 8A             POP	A
98BB	8E 04             JR	BRANCH_98C1


SUB_98BD:
98BD	A5 7B A1          LDA	(7BA1)

SUB_98C0:
98C0	38                NOP

BRANCH_98C1:
98C1	B9 7F             AND	7F
98C3	AE 7B A1          STA	(7BA1)
98C6	FD E9 F0 0A FC    AND#	(PC1500_MSK_REG),FC
98CB	4A 87             LD	C,87
98CD	48 98             LD	B,98
98CF	FD 98             PUSH	DE
98D1	5A A6             LD	E,A6
98D3	58 7B             LD	D,7B
98D5	B9 40             AND	40
98D7	8B 1F             JR	Z,BRANCH_98F8
98D9	A5 7B 9E          LDA	(7B9E)
98DC	B7 C4             CPA	C4
98DE	8B 01             JR	Z,BRANCH_98E1
98E0	F9                RCF

BRANCH_98E1:
98E1	A5 78 51          LDA	(CONS_1_RS232C)
98E4	81 03             JR	NC,BRANCH_98E9
98E6	A5 78 52          LDA	(CONS_1_(//))

BRANCH_98E9:
98E9	51                STI	(DE)
98EA	A5 78 53          LDA	(7853)
98ED	81 03             JR	NC,BRANCH_98F2
98EF	A5 78 54          LDA	(7854)

BRANCH_98F2:
98F2	51                STI	(DE)
98F3	A5 78 55          LDA	(CR/LF_REG)
98F6	8E 02             JR	BRANCH_98FA

BRANCH_98F8:
98F8	51                STI	(DE)
98F9	51                STI	(DE)

BRANCH_98FA:
98FA	81 01             JR	NC,BRANCH_98FD
98FC	F1                AEX

BRANCH_98FD:
98FD	6A 0D             LD	L,0D
98FF	B9 07             AND	07
9901	D5                SR
9902	81 02             JR	NC,BRANCH_9906
9904	6A 0A             LD	L,0A

BRANCH_9906:
9906	8B 07             JR	Z,BRANCH_990F
9908	D5                SR
9909	B5 0D             LDA	0D
990B	83 02             JR	C,BRANCH_990F
990D	B5 0A             LDA	0A

BRANCH_990F:
990F	51                STI	(DE)
9910	24                LDA	L
9911	51                STI	(DE)
9912	A5 7B 9E          LDA	(7B9E)
9915	B7 C4             CPA	C4
9917	8B 01             JR	Z,BRANCH_991A
9919	F9                RCF

BRANCH_991A:
991A	A5 7B A1          LDA	(7BA1)
991D	F1                AEX
991E	B9 0A             AND	0A
9920	81 02             JR	NC,BRANCH_9924
9922	B5 06             LDA	06

BRANCH_9924:
9924	FD CA             ADD	BC
9926	D9                SL
9927	FD CA             ADD	BC
9929	F5                LDI
992A	F5                LDI
992B	F5                LDI
992C	F5                LDI
992D	F5                LDI
992E	F5                LDI
992F	FD 1A             POP	DE
9931	BF 04             BIT	04
9933	8B 0F             JR	Z,BRANCH_9944
9935	BF 10             BIT	10
9937	8B 0A             JR	Z,BRANCH_9943

BRANCH_9939:
9939	BE 9C FD          CALL	SUB_9CFD
993C	81 05             JR	NC,BRANCH_9943
993E	6C 38             CP	H,38
9940	9B 09             JR	Z,BRANCH_9939
9942	FB                SCF

BRANCH_9943:
9943	9A                RET

BRANCH_9944:
9944	BE 81 E6          CALL	SUB_81E6
9947	F9                RCF
9948	9A                RET


SUB_9949:
9949	FD 6A             LD	HL,BC
994B	F6 7B 75          STU	(7B75)
994E	C8 02             LJNES	BRANCH_9952
9950	8E 2E             JR	BRANCH_9980

BRANCH_9952:
9952	C4 2C 02          JNE	2C,BRANCH_9957
9955	8E 27             JR	BRANCH_997E

BRANCH_9957:
9957	C6                BKW
9958	DE 1F             EVAL	BRANCH_9979
995A	D0 83 1C          INTG	83,BRANCH_9979
995D	BE D2 EA          CALL	LINESEARCH
9960	12                ADC	E

BRANCH_9961:
9961	F4 78 A6          LDU	(78A6)
9964	66                DEC	HL
9965	66                DEC	HL
9966	66                DEC	HL
9967	F6 7B 75          STU	(7B75)
996A	C8 0F             LJNES	BRANCH_997B
996C	F4 7B 75          LDU	(7B75)
996F	64                INC	HL
9970	64                INC	HL
9971	8E 2B             JR	BRANCH_999E
9973	81 04             JR	NC,BRANCH_9979
9975	6C 0B             CP	H,0B
9977	9B 18             JR	Z,BRANCH_9961

BRANCH_9979:
9979	F9                RCF
997A	9A                RET

BRANCH_997B:
997B	C4 2C CE          JNE	2C,BRANCH_9A4C

BRANCH_997E:
997E	C8 05             LJNES	BRANCH_9985

BRANCH_9980:
9980	F4 78 67          LDU	(ENDBASIC)
9983	8E 1C             JR	BRANCH_99A1

BRANCH_9985:
9985	C6                BKW
9986	DE 63             EVAL	99EB
9988	D0 83 60          INTG	83,99EB
998B	FD A8             PUSH	HL
998D	F4 7B 75          LDU	(7B75)
9990	FD 28             LD	BC,HL
9992	FD 2A             POP	HL
9994	BE D2 EC          CALL	D2EC
9997	4D C8             BIT	(BC),C8
9999	53                STD	(DE)
999A	F4 78 A6          LDU	(78A6)
999D	66                DEC	HL

BRANCH_999E:
999E	65                LDI	(HL)
999F	FD EA             ADD	HL

BRANCH_99A1:
99A1	F6 7B 79          STU	(7B79)
99A4	F4 7B 75          LDU	(7B75)
99A7	FD 28             LD	BC,HL
99A9	F4 7B 79          LDU	(7B79)
99AC	FB                SCF
99AD	A5 78 68          LDA	(7868)
99B0	20                SBC	L
99B1	A5 78 67          LDA	(ENDBASIC)
99B4	A0                SBC	H
99B5	81 2A             JR	NC,BRANCH_99E1
99B7	A4                LDA	H
99B8	A7 78 64          CPA	(ENDRAM)
99BB	83 24             JR	C,BRANCH_99E1
99BD	BE DF E1          CALL	DFE1
99C0	F6 7B 77          STU	(7B77)
99C3	F4 7B 75          LDU	(7B75)
99C6	A7 78 65          CPA	(STARTBASIC)
99C9	81 05             JR	NC,BRANCH_99D0
99CB	A7 78 63          CPA	(STARTRAM)
99CE	83 10             JR	C,BRANCH_99E0

BRANCH_99D0:
99D0	CC 60             LDS	(60)
99D2	68 1F             LD	H,1F
99D4	4A 00             LD	C,00
99D6	05                LDA	(BC)
99D7	B7 55             CPA	55
99D9	F9                RCF
99DA	89 04             JR	NZ,BRANCH_99E0
99DC	4A 07             LD	C,07
99DE	05                LDA	(BC)
99DF	D9                SL

BRANCH_99E0:
99E0	9A                RET

BRANCH_99E1:
99E1	68 1F             LD	H,1F
99E3	F9                RCF
99E4	9A                RET
99E5	81 04             JR	NC,99EB
99E7	6C 0B             CP	H,0B
99E9	9B 53             JR	Z,9998
99EB	F9                RCF
99EC	9A                RET

SUB_99ED:
99ED	8E 5D             JR	BRANCH_9A4C


SUB_99EF:
99EF	85 29             JR	NH,BRANCH_9A1A
99F1	DE 5B             EVAL	BRANCH_9A4E
99F3	D0 00 58          INTG	00,BRANCH_9A4E
99F6	F6 7B 75          STU	(7B75)
99F9	C2 2C 50          LJNE	2C,BRANCH_9A4C
99FC	DE 50             EVAL	BRANCH_9A4E
99FE	D0 01 4D          INTG	01,BRANCH_9A4E
9A01	A5 7B 75          LDA	(7B75)
9A04	08                STA	B
9A05	A5 7B 76          LDA	(7B76)
9A08	0A                STA	C
9A09	BE DF E2          CALL	SUB85
9A0C	81 41             JR	NC,BRANCH_9A4F
9A0E	F6 7B 77          STU	(7B77)
9A11	C8 0B             LJNES	BRANCH_9A1E

BRANCH_9A13:
9A13	68 FF             LD	H,FF
9A15	6A FF             LD	L,FF
9A17	56                DEC	DE
9A18	8E 0E             JR	BRANCH_9A28

BRANCH_9A1A:
9A1A	C8 06             LJNES	BRANCH_9A22
9A1C	9E 0B             JR	BRANCH_9A13

BRANCH_9A1E:
9A1E	C4 2C 2B          JNE	2C,BRANCH_9A4C
9A21	C0                LDW

BRANCH_9A22:
9A22	C6                BKW
9A23	DE 29             EVAL	BRANCH_9A4E
9A25	D0 00 26          INTG	00,BRANCH_9A4E

BRANCH_9A28:
9A28	F6 7B 79          STU	(7B79)
9A2B	8E 1B             JR	BRANCH_9A48


SUB_9A2D:
9A2D	BE DF EE          CALL	DFEE
9A30	8E 09             JR	BRANCH_9A3B


SUB_9A32:
9A32	6A BB             LD	L,BB
9A34	68 00             LD	H,00
9A36	8E 05             JR	BRANCH_9A3D


SUB_9A38:
9A38	BE DF D9          CALL	DFD9

BRANCH_9A3B:
9A3B	81 12             JR	NC,BRANCH_9A4F

BRANCH_9A3D:
9A3D	84                LDA	B
9A3E	AE 7B 75          STA	(7B75)
9A41	04                LDA	C
9A42	AE 7B 76          STA	(7B76)
9A45	F6 7B 77          STU	(7B77)

BRANCH_9A48:
9A48	C8 02             LJNES	BRANCH_9A4C

BRANCH_9A4A:
9A4A	FB                SCF
9A4B	9A                RET


BRANCH_9A4C:
9A4C	68 01             LD	H,01

BRANCH_9A4E:
9A4E	F9                RCF

BRANCH_9A4F:
9A4F	9A                RET

SUB_9A50:
9A50	B5 00             LDA	00

BRANCH_9A52:
9A52	2A                STA	L
9A53	FB                SCF
9A54	A1 7B A7          SBC	(7BA7)
9A57	83 13             JR	C,BRANCH_9A6C
9A59	A5 78 56          LDA	(ZONE_REG)
9A5C	B9 1F             AND	1F
9A5E	22                ADC	L
9A5F	91 0F             JR	NC,BRANCH_9A52
9A61	A1 7B A7          SBC	(7BA7)
9A64	2A                STA	L
9A65	A5 7B A6          LDA	(7BA6)
9A68	89 0B             JR	NZ,BRANCH_9A75
9A6A	8E 24             JR	BRANCH_9A90

BRANCH_9A6C:
9A6C	2A                STA	L
9A6D	A5 7B A6          LDA	(7BA6)
9A70	8B 1E             JR	Z,BRANCH_9A90
9A72	26                CPA	L
9A73	83 1B             JR	C,BRANCH_9A90

BRANCH_9A75:
9A75	BA 9B 41          JP	SUB_9B41

SUB_9A78:
9A78	FB                SCF
9A79	68 35             LD	H,35
9A7B	A5 7B A6          LDA	(7BA6)
9A7E	8B 03             JR	Z,BRANCH_9A83
9A80	20                SBC	L
9A81	91 39             JR	NC,BRANCH_9A4A

BRANCH_9A83:
9A83	24                LDA	L
9A84	A1 7B A7          SBC	(7BA7)
9A87	83 06             JR	C,BRANCH_9A8F
9A89	BE 9B 41          CALL	SUB_9B41
9A8C	83 0E             JR	C,BRANCH_9A9C
9A8E	24                LDA	L

BRANCH_9A8F:
9A8F	2A                STA	L

BRANCH_9A90:
9A90	62                DEC	L
9A91	81 09             JR	NC,BRANCH_9A9C

BRANCH_9A93:
9A93	B5 20             LDA	20
9A95	BE 9B 32          CALL	SUB_9B32
9A98	83 02             JR	C,BRANCH_9A9C
9A9A	88 09             DJC	BRANCH_9A93

BRANCH_9A9C:
9A9C	9A                RET

BRAnCH_9A9D:
9A9D	BE 9A CF          CALL	9ACF
9AA0	93 06             JR	C,BRANCH_9A9C
9AA2	A4                LDA	H
9AA3	9E 16             JR	BRANCH_9A8F

SUB_9AA5:
9AA5	68 00             LD	H,00

BRANCH_9AA7:
9AA7	BE 9B E1          CALL	SUB_9BE1

BRANCH_9AAA:
9AAA	83 15             JR	C,SUB_9AC1
9AAC	BE 9A CF          CALL	9ACF
9AAF	BE 9A E6          CALL	SUB_9AE6
9AB2	83 0D             JR	C,SUB_9AC1
9AB4	A5 7B 99          LDA	(7B99)
9AB7	2A                STA	L
9AB8	A5 7B 98          LDA	(7B98)
9ABB	28                STA	H
9ABC	FD 62             DEC	H
9ABE	93 19             JR	C,BRANCH_9AA7

BRANCH_9AC0:
9AC0	9A                RET

SUB_9AC1:
9AC1	BE 9B 5E          CALL	SUB_9B5E
9AC4	93 06             JR	C,BRANCH_9AC0
9AC6	BE 9C 32          CALL	SUB_9C32
9AC9	9E 21             JR	BRANCH_9AAA

BRANCH_9ACB:
9ACB	4A B0             LD	C,B0
9ACD	6A 4F             LD	L,4F
9ACF	BE 7B AD          CALL	7BAD
9AD2	83 11             JR	C,BRANCH_9AE5
9AD4	88 07             DJC	9ACF
9AD6	ED 7B A1 20       BIT	(7BA1),20
9ADA	89 09             JR	NZ,BRANCH_9AE5
9ADC	4C 7B             CP	B,7B
9ADE	89 04             JR	NZ,BRANCH_9AE4
9AE0	4E 60             CP	C,60
9AE2	9B 19             JR	Z,BRANCH_9ACB

BRANCH_9AE4:
9AE4	F9                RCF

BRANCH_9AE5:
9AE5	9A                RET

SUB_9AE6:
9AE6	ED 7B A1 80       BIT	(7BA1),80
9AEA	8B 24             JR	Z,SUB_9B10
9AEC	81 0A             JR	NC,SUB_9AF8
9AEE	6C 3F             CP	H,3F
9AF0	8B 16             JR	Z,SUB_9B08
9AF2	6C 3E             CP	H,3E
9AF4	8B 0D             JR	Z,9B03

SUB_9AF6:
9AF6	FB                SCF

SUB_9AF7:
9AF7	9A                RET

SUB_9AF8:
9AF8	ED 7B A1 20       BIT	(7BA1),20
9AFC	8B 05             JR	Z,9B03
9AFE	BE 9B C1          CALL	SUB_9BC1
9B01	9E 0C             JR	SUB_9AF7
9B03	BE 9E 54          CALL	SUB_9E54
9B06	93 11             JR	C,SUB_9AF7

SUB_9B08:
9B08	BE 9C 94          CALL	SUB_9C94
9B0B	93 16             JR	C,SUB_9AF7
9B0D	BA 9C 48          JP	BRANCH_9C84

SUB_9B10:
9B10	91 1B             JR	NC,SUB_9AF7
9B12	6C 3E             CP	H,3E
9B14	99 20             JR	NZ,SUB_9AF6
9B16	E9 7B 98 00       AND	(7B98),00
9B1A	F9                RCF
9B1B	9A                RET

SUB_9B1C:
9B1C	BE 7B AA          CALL	7BAA
9B1F	83 0E             JR	C,BRANCH_9B2F
9B21	B7 0D             CPA	0D
9B23	F9                RCF
9B24	89 09             JR	NZ,BRANCH_9B2F
9B26	ED 7B A1 04       BIT	(7BA1),04
9B2A	8B 03             JR	Z,BRANCH_9B2F
9B2C	FB                SCF
9B2D	68 3E             LD	H,3E

BRANCH_9B2F:
9B2F	41                STI	(BC)
9B30	9A                RET

SUB_9B31:
9B31	45                LDI	(BC)

SUB_9B32:
9B32	BE 7B AA          CALL	7BAA
9B35	83 20             JR	C,BRANCH_9B57
9B37	A5 7B A6          LDA	(7BA6)
9B3A	8B 1C             JR	Z,BRANCH_9B58
9B3C	A1 7B A7          SBC	(7BA7)
9B3F	83 17             JR	C,BRANCH_9B58

SUB_9B41:
9B41	A5 7B A9          LDA	(7BA9)
9B44	BE 7B AA          CALL	7BAA
9B47	83 0E             JR	C,BRANCH_9B57
9B49	A5 7B A8          LDA	(7BA8)
9B4C	8B 05             JR	Z,BRANCH_9B53
9B4E	BE 7B AA          CALL	7BAA
9B51	83 04             JR	C,BRANCH_9B57

BRANCH_9B53:
9B53	E9 7B A7 00       AND	(7BA7),00

BRANCH_9B57:
9B57	9A                RET

BRANCH_9B58:
9B58	EF 7B A7 01       ADD	(7BA7),01

BRANCH_9B5C:
9B5C	F9                RCF
9B5D	9A                RET

SUB_9B5E:
9B5E	A5 7B A1          LDA	(7BA1)
9B61	D9                SL
9B62	81 10             JR	NC,BRANCH_9B74
9B64	6C 3C             CP	H,3C
9B66	9B 0C             JR	Z,BRANCH_9B5C
9B68	6C 34             CP	H,34
9B6A	9B 10             JR	Z,BRANCH_9B5C
9B6C	6C 40             CP	H,40
9B6E	9B 14             JR	Z,BRANCH_9B5C
9B70	6C 3A             CP	H,3A
9B72	9B 18             JR	Z,BRANCH_9B5C

BRANCH_9B74:
9B74	FB                SCF
9B75	9A                RET

SUB_9B76:
9B76	A5 7B A1          LDA	(7BA1)
9B79	68 7F             LD	H,7F
9B7B	B7 24             CPA	24
9B7D	8B 08             JR	Z,BRANCH_9B87
9B7F	68 3F             LD	H,3F
9B81	B7 A4             CPA	A4
9B83	8B 02             JR	Z,BRANCH_9B87
9B85	F9                RCF
9B86	9A                RET

BRANCH_9B87:
9B87	A4                LDA	H
9B88	8E 02             JR	SUB_9B8C

SUB_9B8A:
9B8A	B5 32             LDA	32

SUB_9B8C:
9B8C	68 00             LD	H,00
9B8E	FD A8             PUSH	HL
9B90	2A                STA	L
9B91	BE E8 8C          CALL	SBRAC
9B94	FD 2A             POP	HL
9B96	68 00             LD	H,00
9B98	9A                RET

BRANCH_9B99:
9B99	C2 3B 01          LJNE	3B,BRANCH_9B9D
9B9C	9A                RET

BRANCH_9B9D:
9B9D	C6                BKW
9B9E	FB                SCF
9B9F	A5 7B 65          LDA	(7B65)
9BA2	8B 05             JR	Z,9BA9
9BA4	C4 0D 01          JNE	0D,BRANCH_9BA8
9BA7	9A                RET

BRANCH_9BA8:
9BA8	F9                RCF
9BA9	9A                RET

SUB_9BAA:
9BAA	ED 7B A1 40       BIT	(7BA1),40
9BAE	8B 10             JR	Z,BRANCH_9BC0
9BB0	A5 7B A7          LDA	(7BA7)
9BB3	ED 7B 9E 04       BIT	(7B9E),04
9BB7	89 04             JR	NZ,BRANCH_9BBD
9BB9	AE 78 53          STA	(7853)
9BBC	9A                RET

BRANCH_9BBD:
9BBD	AE 78 54          STA	(7854)

BRANCH_9BC0:
9BC0	9A                RET

SUB_9BC1:
9BC1	ED 7B A1 80       BIT	(7BA1),80
9BC5	9B 1F             JR	Z,BRANCH_9BA8
9BC7	B5 03             LDA	03
9BC9	BE 9C 5C          CALL	BRANCH_9C5C
9BCC	93 0E             JR	C,BRANCH_9BC0
9BCE	BE 81 E6          CALL	SUB_81E6
9BD1	A5 7B A2          LDA	(7BA2)
9BD4	BE 9C 57          CALL	BRANCH_9C57
9BD7	93 19             JR	C,BRANCH_9BC0
9BD9	FB                SCF
9BDA	B5 F2             LDA	F2
9BDC	BA 9C FD          JP	SUB_9CFD
9BDF	FD 18             LD	BC,DE

SUB_9BE1:
9BE1	E9 7B A5 7F       AND	(7BA5),7F
9BE5	B5 FD             LDA	FD
9BE7	AE 7B A4          STA	(7BA4)
9BEA	04                LDA	C
9BEB	AE 7B 97          STA	(7B97)
9BEE	84                LDA	B
9BEF	AE 7B 96          STA	(7B96)
9BF2	24                LDA	L
9BF3	AE 7B 99          STA	(7B99)
9BF6	A4                LDA	H
9BF7	AE 7B 98          STA	(7B98)

BRANCH_9BFA:
9BFA	8B 02             JR	Z,BRANCH_9BFE
9BFC	6A FF             LD	L,FF

BRANCH_9BFE:
9BFE	A5 7B A1          LDA	(7BA1)
9C01	D9                SL
9C02	81 2D             JR	NC,BRANCH_9C31
9C04	E9 7B A2 00       AND	(7BA2),00
9C08	D9                SL
9C09	A5 7B A5          LDA	(7BA5)
9C0C	E9 7B A5 00       AND	(7BA5),00
9C10	8F 3A             JR	V,BRANCH_9C4C
9C12	D9                SL
9C13	81 05             JR	NC,BRANCH_9C1A
9C15	B5 3D             LDA	3D
9C17	BE 9C 31          CALL	BRANCH_9C31

BRANCH_9C1A:
9C1A	BE 9C 94          CALL	SUB_9C94
9C1D	83 12             JR	C,BRANCH_9C31
9C1F	B7 02             CPA	02
9C21	F9                RCF
9C22	8B 0D             JR	Z,BRANCH_9C31
9C24	B7 2D             CPA	2D
9C26	8B 20             JR	Z,BRANCH_9C84
9C28	68 42             LD	H,42
9C2A	B7 37             CPA	37
9C2C	8B 03             JR	Z,BRANCH_9C31
9C2E	FB                SCF
9C2F	68 3A             LD	H,3A

BRANCH_9C31:
9C31	9A                RET

SUB_9C32:
9C32	EB 7B A5 80       OR	(7BA5),80
9C36	A5 7B 97          LDA	(7B97)
9C39	0A                STA	C
9C3A	A5 7B 96          LDA	(7B96)
9C3D	08                STA	B
9C3E	A5 7B 99          LDA	(7B99)
9C41	2A                STA	L
9C42	A5 7B 98          LDA	(7B98)
9C45	28                STA	H
9C46	9E 4E             JR	BRANCH_9BFA

BRANCH_9C84:
9C48	B5 70             LDA	70
9C4A	8E 0B             JR	BRANCH_9C57

BRANCH_9C4C:
9C4C	BF C0             BIT	C0
9C4E	9B 1F             JR	Z,BRANCH_9C31
9C50	BE 9C FD          CALL	SUB_9CFD
9C53	93 24             JR	C,BRANCH_9C31
9C55	B5 02             LDA	02

BRANCH_9C57:
9C57	FD A8             PUSH	HL
9C59	2A                STA	L
9C5A	8E 16             JR	BRANCH_9C72

BRANCH_9C5C:
9C5C	FD A8             PUSH	HL
9C5E	8E 09             JR	BRANCH_9C69

JMP_9C60:
9C60	FD A8             PUSH	HL
9C62	2A                STA	L
9C63	B7 40             CPA	40
9C65	83 02             JR	C,BRANCH_9C69
9C67	B3 40             ADC	40

BRANCH_9C69:
9C69	28                STA	H
9C6A	BE 9C 89          CALL	BRANCH_9C89
9C6D	A4                LDA	H
9C6E	B7 40             CPA	40
9C70	81 12             JR	NC,9C84

BRANCH_9C72:
9C72	24                LDA	L
9C73	B7 40             CPA	40
9C75	83 0D             JR	C,9C84
9C77	B5 10             LDA	10
9C79	BE 82 3A          CALL	UNKNOWN_823A
9C7C	81 03             JR	NC,BRANCH_9C81
9C7E	FD 0A             POP	BC
9C80	9A                RET

BRANCH_9C81:
9C81	24                LDA	L
9C82	B3 40             ADC	40
9C84	FD 2A             POP	HL
9C86	BA 82 3A          JP	UNKNOWN_823A

BRANCH_9C89:
9C89	A5 7B A2          LDA	(7BA2)
9C8C	D9                SL
9C8D	A2                ADC	H
9C8E	B3 00             ADC	00
9C90	AE 7B A2          STA	(7BA2)
9C93	9A                RET

SUB_9C94:
9C94	24                LDA	L
9C95	6A 00             LD	L,00
9C97	8E 03             JR	BRANCH_9C9C

JMP_9C99:
9C99	24                LDA	L
9C9A	6A 02             LD	L,02

BRANCH_9C9C:
9C9C	FD C8             PUSH	A
9C9E	BE 82 8E          CALL	BRANCH_828E
9CA1	83 1E             JR	C,BRANCH_9CC1
9CA3	28                STA	H
9CA4	B7 40             CPA	40
9CA6	83 0E             JR	C,BRANCH_9CB6
9CA8	B7 10             CPA	10
9CAA	89 1A             JR	NZ,BRANCH_9CC6
9CAC	BE 82 8E          CALL	BRANCH_828E
9CAF	83 10             JR	C,BRANCH_9CC1
9CB1	28                STA	H
9CB2	B1 3F             SBC	3F
9CB4	81 17             JR	NC,BRANCH_9CCD

BRANCH_9CB6:
9CB6	62                DEC	L
9CB7	81 28             JR	NC,BRANCH_9CE1
9CB9	2A                STA	L
9CBA	BE 9C 89          CALL	BRANCH_9C89
9CBD	A5 7B A2          LDA	(7BA2)
9CC0	28                STA	H

BRANCH_9CC1:
9CC1	FD 8A             POP	A
9CC3	2A                STA	L
9CC4	A4                LDA	H
9CC5	9A                RET

BRANCH_9CC6:
9CC6	62                DEC	L
9CC7	81 04             JR	NC,BRANCH_9CCD
9CC9	B7 03             CPA	03
9CCB	8B 0B             JR	Z,BRANCH_9CD8

BRANCH_9CCD:
9CCD	68 3B             LD	H,3B
9CCF	B7 37             CPA	37
9CD1	9B 12             JR	Z,BRANCH_9CC1
9CD3	68 3A             LD	H,3A

BRANCH_9CD5:
9CD5	FB                SCF
9CD6	9E 17             JR	BRANCH_9CC1

BRANCH_9CD8:
9CD8	28                STA	H
9CD9	BE 9C 89          CALL	BRANCH_9C89
9CDC	68 3F             LD	H,3F
9CDE	FB                SCF
9CDF	9E 20             JR	BRANCH_9CC1

BRANCH_9CE1:
9CE1	68 3C             LD	H,3C
9CE3	B7 A2             CPA	A2
9CE5	99 12             JR	NZ,BRANCH_9CD5
9CE7	FD 8A             POP	A
9CE9	2A                STA	L
9CEA	9E A4             JR	BRANCH_9C84


SUB_9CEC:
9CEC	4A 60             LD	C,60
9CEE	48 7B             LD	B,7B
9CF0	6A 1A             LD	L,1A
9CF2	ED 7B A1 80       BIT	(7BA1),80
9CF6	8B 02             JR	Z,9CFA
9CF8	44                INC	BC
9CF9	62                DEC	L
9CFA	BA 9A A5          JP	SUB_9AA5

SUB_9CFD:
9CFD	BE 81 E6          CALL	SUB_81E6
9D00	FB                SCF
9D01	EB 7B A5 40       OR	(7BA5),40
9D05	B5 F2             LDA	F2
9D07	E9 7B A5 DF       AND	(7BA5),DF
9D0B	AE 7B A3          STA	(7BA3)
9D0E	68 00             LD	H,00
9D10	83 19             JR	C,BRANCH_9D2B

BRANCH_9D12:
9D12	B5 2D             LDA	2D
9D14	BE 81 BC          CALL	SUB_81BC
9D17	81 11             JR	NC,BRANCH_9D2A
9D19	BF 20             BIT	20
9D1B	89 0D             JR	NZ,BRANCH_9D2A

BRANCH_9D1D:
9D1D	BE 9B 8A          CALL	SUB_9B8A
9D20	83 08             JR	C,BRANCH_9D2A
9D22	EF 7B A3 01       ADD	(7BA3),01
9D26	91 16             JR	NC,BRANCH_9D12

BRANCH_9D28:
9D28	68 38             LD	H,38

BRANCH_9D2A:
9D2A	9A                RET

BRANCH_9D2B:
9D2B	BE 81 E6          CALL	SUB_81E6
9D2E	81 15             JR	NC,BRANCH_9D45
9D30	BF 40             BIT	40
9D32	99 0A             JR	NZ,BRANCH_9D2A
9D34	BF 1C             BIT	1C
9D36	89 18             JR	NZ,BRANCH_9D50
9D38	BE 9B 8A          CALL	SUB_9B8A
9D3B	83 27             JR	C,BRANCH_9D64
9D3D	EF 7B A3 01       ADD	(7BA3),01
9D41	93 1B             JR	C,BRANCH_9D28
9D43	9E 1A             JR	BRANCH_9D2B

BRANCH_9D45:
9D45	ED 7B A5 20       BIT	(7BA5),20
9D49	8B 0B             JR	Z,BRANCH_9D56
9D4B	B7 70             CPA	70
9D4D	F9                RCF
9D4E	8B 14             JR	Z,BRANCH_9D64

BRANCH_9D50:
9D50	E9 7B A5 DF       AND	(7BA5),DF
9D54	9E 39             JR	BRANCH_9D1D

BRANCH_9D56:
9D56	EB 7B A5 20       OR	(7BA5),20
9D5A	B7 10             CPA	10
9D5C	9B 33             JR	Z,BRANCH_9D2B
9D5E	B7 3D             CPA	3D
9D60	99 12             JR	NZ,BRANCH_9D50
9D62	68 39             LD	H,39

BRANCH_9D64:
9D64	9A                RET

SUB_9D65:
9D65	BE 81 E6          CALL	SUB_81E6
9D68	4A 7B             LD	C,7B
9D6A	6A 1A             LD	L,1A
9D6C	ED 7B A1 80       BIT	(7BA1),80
9D70	8B 02             JR	Z,BRANCH_9D74
9D72	40                INC	C
9D73	62                DEC	L

BRANCH_9D74:
9D74	48 7B             LD	B,7B
9D76	BE 9A A5          CALL	SUB_9AA5
9D79	83 75             JR	C,BRANCH_9DF0
9D7B	4A 60             LD	C,60
9D7D	6A 04             LD	L,04
9D7F	FD 98             PUSH	DE
9D81	A5 7B A1          LDA	(7BA1)
9D84	D9                SL
9D85	5A 7B             LD	E,7B
9D87	81 03             JR	NC,BRANCH_9D8C
9D89	40                INC	C
9D8A	50                INC	E
9D8B	62                DEC	L

BRANCH_9D8C:
9D8C	48 7B             LD	B,7B
9D8E	58 7B             LD	D,7B
9D90	68 3D             LD	H,3D

BRANCH_9D92:
9D92	55                LDI	(DE)
9D93	F7                CPI
9D94	89 57             JR	NZ,BRANCH_9DED
9D96	88 06             DJC	BRANCH_9D92
9D98	05                LDA	(BC)
9D99	8B 08             JR	Z,BRANCH_9DA3
9D9B	6A 0F             LD	L,0F

BRANCH_9D9D:
9D9D	55                LDI	(DE)
9D9E	F7                CPI
9D9F	89 4C             JR	NZ,BRANCH_9DED
9DA1	88 06             DJC	BRANCH_9D9D

BRANCH_9DA3:
9DA3	FD 1A             POP	DE
9DA5	A5 7B A1          LDA	(7BA1)
9DA8	D9                SL
9DA9	87 40             JR	H,BRANCH_9DEB
9DAB	D9                SL
9DAC	87 32             JR	H,BRANCH_9DE0
9DAE	D9                SL
9DAF	87 17             JR	H,BRANCH_9DC8
9DB1	F4 7B 92          LDU	(7B92)
9DB4	FD 28             LD	BC,HL
9DB6	F4 7B 77          LDU	(7B77)
9DB9	BE DF E2          CALL	SUB85
9DBC	81 31             JR	NC,BRANCH_9DEF
9DBE	F4 7B 75          LDU	(7B75)

BRANCH_9DC1:
9DC1	FD 28             LD	BC,HL
9DC3	F4 7B 92          LDU	(7B92)
9DC6	F9                RCF
9DC7	9A                RET

BRANCH_9DC8:
9DC8	F4 7B 79          LDU	(7B79)
9DCB	26                CPA	L
9DCC	89 08             JR	NZ,BRANCH_9DD6
9DCE	DD                INC	A
9DCF	81 05             JR	NC,BRANCH_9DD6
9DD1	F4 7B 90          LDU	(7B90)
9DD4	9E 15             JR	BRANCH_9DC1

BRANCH_9DD6:
9DD6	EB 7B 94 FF       OR	(7B94),FF
9DDA	EB 7B 95 FF       OR	(7B95),FF
9DDE	9E 1F             JR	BRANCH_9DC1

BRANCH_9DE0:
9DE0	F4 7B 75          LDU	(7B75)
9DE3	F6 78 69          STU	(MERGEBASIC)
9DE6	F6 78 67          STU	(ENDBASIC)
9DE9	6B FF             OR	(HL),FF

BRANCH_9DEB:
9DEB	F9                RCF
9DEC	9A                RET

BRANCH_9DED:
9DED	FD 1A             POP	DE

BRANCH_9DEF:
9DEF	FB                SCF

BRANCH_9DF0:
9DF0	9A                RET

SUB_9DF1:
9DF1	CD 36             SBR	(36)
9DF3	83 28             JR	C,SUB_9E1D
9DF5	FD 88             PUSH	BC
9DF7	5A 62             LD	E,62
9DF9	58 7B             LD	D,7B
9DFB	6A 15             LD	L,15

SUB_9DFD:
9DFD	B5 00             LDA	00

SUB_9DFF:
9DFF	51                STI	(DE)
9E00	88 03             DJC	SUB_9DFF
9E02	5A 60             LD	E,60
9E04	B5 01             LDA	01
9E06	51                STI	(DE)
9E07	A5 7B A1          LDA	(7BA1)
9E0A	B9 4F             AND	4F
9E0C	BB 40             OR	40
9E0E	51                STI	(DE)
9E0F	B5 43             LDA	43
9E11	51                STI	(DE)
9E12	B5 4F             LDA	4F
9E14	51                STI	(DE)
9E15	B5 4D             LDA	4D
9E17	51                STI	(DE)
9E18	FD 1A             POP	DE
9E1A	BA 9B 99          JP	BRANCH_9B99

SUB_9E1D:
9E1D	FD 98             PUSH	DE
9E1F	5A 65             LD	E,65
9E21	58 7B             LD	D,7B
9E23	DC                LDPT
9E24	B7 10             CPA	10
9E26	81 02             JR	NC,SUB_9E2A
9E28	B5 10             LDA	10

SUB_9E2A:
9E2A	2A                STA	L
9E2B	8E 01             JR	SUB_9E2E

SUB_9E2D:
9E2D	F5                LDI

SUB_9E2E:
9E2E	88 03             DJC	SUB_9E2D
9E30	6A 05             LD	L,05
9E32	B5 0F             LDA	0F
9E34	FB                SCF
9E35	A1 7A 07          SBC	(7A07)
9E38	91 3D             JR	NC,SUB_9DFD
9E3A	22                ADC	L
9E3B	2A                STA	L
9E3C	9E 41             JR	SUB_9DFD

SUB_9E3E:
9E3E	A5 7B A1          LDA	(7BA1)
9E41	D9                SL
9E42	81 2F             JR	NC,BRANCH_9E73
9E44	D9                SL
9E45	8D 05             JR	NV,9E4C

SUB_9E47:
9E47	B5 37             LDA	37
9E49	BA 82 3A          JP	UNKNOWN_823A
9E4C	68 37             LD	H,37
9E4E	8E 0A             JR	BRANCH_9E5A
9E50	68 2D             LD	H,2D
9E52	8E 06             JR	BRANCH_9E5A

SUB_9E54:
9E54	68 03             LD	H,03
9E56	8E 02             JR	BRANCH_9E5A
9E58	68 02             LD	H,02

BRANCH_9E5A:
9E5A	BE 82 8E          CALL	BRANCH_828E
9E5D	83 14             JR	C,BRANCH_9E73
9E5F	A6                CPA	H
9E60	89 08             JR	NZ,BRANCH_9E6A
9E62	B7 2D             CPA	2D
9E64	F9                RCF
9E65	8B 0C             JR	Z,BRANCH_9E73
9E67	BA 9C 48          JP	BRANCH_9C84

BRANCH_9E6A:
9E6A	68 3B             LD	H,3B
9E6C	B7 37             CPA	37
9E6E	8B 03             JR	Z,BRANCH_9E73
9E70	68 3A             LD	H,3A
9E72	FB                SCF

BRANCH_9E73:
9E73	9A                RET


SEPARATOR_9E74:
9E74	00 FF 03 D7 26 F7 00 FF   00 FF 00 BF 04 EE 00 FF 
9E84	00 FF 82 FF 06 FE 00 FF   00 FF 09 FE 00 FF 00 FF 
9E94	00 FF 80 FF 05 FE 00 FF   00 FF 00 FF 00 3F 00 FF 
9EA4	00 FF 40 FF 04 FF 00 FF   00 FF 00 FF 80 FF 00 FF 
9EB4	00 FF 00 FF 21 DF 00 FF   00 FF 00 FF 80 FF 00 FF 
9EC4	00 FF 82 FF 50 FD 00 FF   00 FF 00 FF 00 E2 00 FF 
9ED4	00 FF 42 F5 80 7F 00 FF   00 FF 0C CF 08 FF 00 FF 
9EE4	00 FF 00 FE 08 FF 00 FF   00 FF 40 FF 01 FF 00 FF 
9EF4	00 FF 44 FD 82 FF 00 FF   00 FF 10 FF 40 00 00 ED 
9F04	00 FF 10 00 00 00 00 5F   00 FF 01 00 00 00 00 FF 
9F14	00 FD 22 00 00 00 00 FF   00 BF 01 00 00 00 00 DF 
9F24	00 DF 00 00 00 00 00 DD   00 EF 11 00 21 00 00 EF 
9F34	00 CD 00 00 83 00 00 FE   00 7F 02 00 41 00 00 B9 
9F44	00 7F 48 00 01 00 00 9F   00 8D 00 00 40 00 00 FF 
9F54	00 EF 08 00 88 00 00 FB   00 FF 0A 00 10 00 00 DF 
9F64	00 FF 40 00 00 00 00 FE   00 FF 00 00 00 00 00 F7 
9F74	00 FE 08 00 08 00 00 FE   00 7F 02 00 80 00 00 7B 
9F84	00 FF 00 00 00 00 00 F7   00 7F 00 04 20 08 00 FF 
9F94	00 7F 05 00 81 00 00 7F   00 FF 44 00 40 00 00 7F 
9FA4	00 DD 84 00 A0 00 00 7F   00 BF 01 00 81 00 00 BF 
9FB4	00 7F 10 00 00 00 00 BF   00 FF 02 02 02 00 00 FF 
9FC4	00 FE 00 00 21 00 00 EF   00 FC 10 00 02 00 00 DE 
9FD4	00 F7 00 00 34 00 00 4F   00 3F 12 00 00 00 00 DF 
9FE4	00 7F 08 00 01 00 00 FF   00 FF 04 00 84 00 00 9A 
9FF4	00 AF 00 00 80 00 00 7F   00 FF 04 00 

A000	01 2C 26 F1 AB 20 54 52   41 4E 53 46 45 52 20 43 

